Archive member included because of file (symbol)

arch/arm/lib/lib.a(ashldi3.o)
                              arch/arm/kernel/built-in.o (__ashldi3)
arch/arm/lib/lib.a(ashrdi3.o)
                              arch/arm/kernel/built-in.o (__ashrdi3)
arch/arm/lib/lib.a(backtrace.o)
                              arch/arm/kernel/built-in.o (__backtrace)
arch/arm/lib/lib.a(changebit.o)
                              arch/arm/kernel/built-in.o (_change_bit_le)
arch/arm/lib/lib.a(clear_user.o)
                              arch/arm/kernel/built-in.o (__clear_user)
arch/arm/lib/lib.a(clearbit.o)
                              arch/arm/kernel/built-in.o (_clear_bit_le)
arch/arm/lib/lib.a(copy_from_user.o)
                              arch/arm/kernel/built-in.o (__copy_from_user)
arch/arm/lib/lib.a(copy_page.o)
                              arch/arm/kernel/built-in.o (copy_page)
arch/arm/lib/lib.a(copy_to_user.o)
                              arch/arm/kernel/built-in.o (__copy_to_user)
arch/arm/lib/lib.a(csumipv6.o)
                              arch/arm/kernel/built-in.o (__csum_ipv6_magic)
arch/arm/lib/lib.a(csumpartial.o)
                              arch/arm/kernel/built-in.o (csum_partial)
arch/arm/lib/lib.a(csumpartialcopy.o)
                              arch/arm/kernel/built-in.o (csum_partial_copy_nocheck)
arch/arm/lib/lib.a(csumpartialcopyuser.o)
                              arch/arm/kernel/built-in.o (csum_partial_copy_from_user)
arch/arm/lib/lib.a(delay.o)   arch/arm/kernel/built-in.o (__udelay)
arch/arm/lib/lib.a(div64.o)   arch/arm/kernel/built-in.o (__do_div64)
arch/arm/lib/lib.a(findbit.o)
                              arch/arm/kernel/built-in.o (_find_first_zero_bit_le)
arch/arm/lib/lib.a(getuser.o)
                              arch/arm/kernel/built-in.o (__get_user_1)
arch/arm/lib/lib.a(io-readsb.o)
                              arch/arm/kernel/built-in.o (__raw_readsb)
arch/arm/lib/lib.a(io-readsl.o)
                              arch/arm/kernel/built-in.o (__raw_readsl)
arch/arm/lib/lib.a(io-readsw-armv4.o)
                              arch/arm/kernel/built-in.o (__raw_readsw)
arch/arm/lib/lib.a(io-writesb.o)
                              arch/arm/kernel/built-in.o (__raw_writesb)
arch/arm/lib/lib.a(io-writesl.o)
                              arch/arm/kernel/built-in.o (__raw_writesl)
arch/arm/lib/lib.a(io-writesw-armv4.o)
                              arch/arm/kernel/built-in.o (__raw_writesw)
arch/arm/lib/lib.a(lib1funcs.o)
                              arch/arm/kernel/built-in.o (__udivsi3)
arch/arm/lib/lib.a(lshrdi3.o)
                              arch/arm/kernel/built-in.o (__lshrdi3)
arch/arm/lib/lib.a(memchr.o)  arch/arm/kernel/built-in.o (memchr)
arch/arm/lib/lib.a(memcpy.o)  init/built-in.o (memcpy)
arch/arm/lib/lib.a(memmove.o)
                              init/built-in.o (memmove)
arch/arm/lib/lib.a(memset.o)  init/built-in.o (memset)
arch/arm/lib/lib.a(memzero.o)
                              init/built-in.o (__memzero)
arch/arm/lib/lib.a(muldi3.o)  arch/arm/kernel/built-in.o (__muldi3)
arch/arm/lib/lib.a(putuser.o)
                              arch/arm/kernel/built-in.o (__put_user_1)
arch/arm/lib/lib.a(setbit.o)  arch/arm/kernel/built-in.o (_set_bit_le)
arch/arm/lib/lib.a(sha1.o)    arch/arm/kernel/built-in.o (sha_transform)
arch/arm/lib/lib.a(strchr.o)  init/built-in.o (strchr)
arch/arm/lib/lib.a(strncpy_from_user.o)
                              arch/arm/kernel/built-in.o (__strncpy_from_user)
arch/arm/lib/lib.a(strnlen_user.o)
                              arch/arm/kernel/built-in.o (__strnlen_user)
arch/arm/lib/lib.a(strrchr.o)
                              arch/arm/kernel/built-in.o (strrchr)
arch/arm/lib/lib.a(testchangebit.o)
                              arch/arm/kernel/built-in.o (_test_and_change_bit_le)
arch/arm/lib/lib.a(testclearbit.o)
                              arch/arm/kernel/built-in.o (_test_and_clear_bit_le)
arch/arm/lib/lib.a(testsetbit.o)
                              arch/arm/kernel/built-in.o (_test_and_set_bit_le)
arch/arm/lib/lib.a(ucmpdi2.o)
                              arch/arm/kernel/built-in.o (__ucmpdi2)
lib/lib.a(argv_split.o)       kernel/built-in.o (argv_free)
lib/lib.a(cmdline.o)          arch/arm/kernel/built-in.o (memparse)
lib/lib.a(ctype.o)            init/built-in.o (_ctype)
lib/lib.a(dec_and_lock.o)     kernel/built-in.o (_atomic_dec_and_lock)
lib/lib.a(extable.o)          kernel/built-in.o (sort_extable)
lib/lib.a(idr.o)              kernel/built-in.o (idr_init)
lib/lib.a(int_sqrt.o)         mm/built-in.o (int_sqrt)
lib/lib.a(irq_regs.o)         arch/arm/kernel/built-in.o (per_cpu____irq_regs)
lib/lib.a(kobject.o)          fs/built-in.o (kobject_init)
lib/lib.a(kobject_uevent.o)   fs/built-in.o (add_uevent_var)
lib/lib.a(kref.o)             fs/built-in.o (kref_init)
lib/lib.a(prio_heap.o)        kernel/built-in.o (heap_init)
lib/lib.a(prio_tree.o)        init/built-in.o (prio_tree_init)
lib/lib.a(proportions.o)      mm/built-in.o (prop_descriptor_init)
lib/lib.a(radix-tree.o)       mm/built-in.o (radix_tree_lookup_slot)
lib/lib.a(ratelimit.o)        kernel/built-in.o (__ratelimit)
lib/lib.a(rbtree.o)           kernel/built-in.o (rb_insert_color)
lib/lib.a(reciprocal_div.o)   mm/built-in.o (reciprocal_value)
lib/lib.a(rwsem-spinlock.o)   kernel/built-in.o (__init_rwsem)
lib/lib.a(string.o)           init/built-in.o (strcpy)
lib/lib.a(vsprintf.o)         init/built-in.o (simple_strtoul)
lib/lib.a(klist.o)            drivers/built-in.o (klist_init)

Discarded input sections

 .exit.text     0x0000000000000000       0x1c arch/arm/mach-goldfish/built-in.o
 .exitcall.exit
                0x0000000000000000        0x8 arch/arm/mach-goldfish/built-in.o
 .exit.text     0x0000000000000000       0xb4 kernel/built-in.o
 .exitcall.exit
                0x0000000000000000        0xc kernel/built-in.o
 .exit.text     0x0000000000000000       0x60 mm/built-in.o
 .exitcall.exit
                0x0000000000000000        0x4 mm/built-in.o
 .exit.text     0x0000000000000000      0x300 fs/built-in.o
 .exitcall.exit
                0x0000000000000000       0x40 fs/built-in.o
 .exit.text     0x0000000000000000      0x20c crypto/built-in.o
 .exitcall.exit
                0x0000000000000000       0x44 crypto/built-in.o
 .exit.text     0x0000000000000000       0xf8 block/built-in.o
 .exitcall.exit
                0x0000000000000000       0x10 block/built-in.o
 .exit.text     0x0000000000000000       0x78 lib/built-in.o
 .exitcall.exit
                0x0000000000000000       0x10 lib/built-in.o
 .exit.text     0x0000000000000000      0x6e8 drivers/built-in.o
 .exitcall.exit
                0x0000000000000000       0x98 drivers/built-in.o
 .exit.text     0x0000000000000000     0x126c net/built-in.o
 .exitcall.exit
                0x0000000000000000      0x194 net/built-in.o

Memory Configuration

Name             Origin             Length             Attributes
*default*        0x0000000000000000 0xffffffffffffffff

Linker script and memory map

                0x00000000c033dce0                jiffies = jiffies_64

.note.gnu.build-id
                0x0000000000000000       0x24
 .note.gnu.build-id
                0x0000000000000000       0x24 linker stubs
                0x00000000c0008000                . = 0xc0008000

.text.head      0x00000000c0008000      0x240
                0x00000000c0008000                _stext = .
                0x00000000c0008000                _sinittext = .
 *(.text.head)
 .text.head     0x00000000c0008000      0x240 arch/arm/kernel/head.o
                0x00000000c0008000                stext
                0x00000000c0008198                lookup_processor_type
                0x00000000c00081f4                lookup_machine_type

.init           0x00000000c0008240    0x1edc0
 *(.init.text)
 .init.text     0x00000000c0008240     0x5954 init/built-in.o
                0x00000000c000861c                parse_early_param
                0x00000000c0008684                smp_setup_processor_id
                0x00000000c0008694                thread_info_cache_init
                0x00000000c00086a4                start_kernel
                0x00000000c0008b60                mount_block_root
                0x00000000c0008dec                change_floppy
                0x00000000c0008ed4                mount_root
                0x00000000c0008f3c                prepare_namespace
                0x00000000c000a438                rd_load_image
                0x00000000c000b254                rd_load_disk
                0x00000000c000b3b0                initrd_load
 *fill*         0x00000000c000db94        0xc 00
 .init.text     0x00000000c000dba0     0x1024 arch/arm/kernel/built-in.o
                0x00000000c000dba0                convert_to_tag_list
                0x00000000c000dd1c                squash_mem_tags
                0x00000000c000dd60                __kuser_helper_start
                0x00000000c000ddc0                __kuser_helper_end
                0x00000000c000ddc0                __stubs_start
                0x00000000c000dfe4                __stubs_end
                0x00000000c000dfe4                __vectors_start
                0x00000000c000e004                __vectors_end
                0x00000000c000e020                init_IRQ
                0x00000000c000e0a8                reboot_setup
                0x00000000c000e428                setup_arch
                0x00000000c000eac4                time_init
                0x00000000c000eae8                trap_init
                0x00000000c000eaf8                early_trap_init
 .init.text     0x00000000c000ebc4     0x15d0 arch/arm/mm/built-in.o
                0x00000000c000ec8c                hook_fault_code
                0x00000000c000ed94                bootmem_init
                0x00000000c000f114                mem_init
                0x00000000c000f324                check_writebuffer_bugs
                0x00000000c000f6d4                create_mapping
                0x00000000c000fa20                iotable_init
                0x00000000c000fa58                reserve_node_zero
                0x00000000c000faa4                paging_init
 .init.text     0x00000000c0010194      0x148 arch/arm/mach-goldfish/built-in.o
 .init.text     0x00000000c00102dc      0x16c arch/arm/vfp/built-in.o
                0x00000000c0010438                vfp_testing_entry
 .init.text     0x00000000c0010448     0x22f8 kernel/built-in.o
                0x00000000c00104e0                sched_init_smp
                0x00000000c0010520                sched_init
                0x00000000c00107f8                fork_init
                0x00000000c001088c                proc_caches_init
                0x00000000c0010c70                softirq_init
                0x00000000c0010ce4                arch_early_irq_init
                0x00000000c0010f94                reserve_region_with_split
                0x00000000c0010fcc                init_timers
                0x00000000c00110f0                signals_init
                0x00000000c0011134                usermodehelper_init
                0x00000000c0011190                init_workqueues
                0x00000000c0011210                pidhash_init
                0x00000000c00112b8                pidmap_init
                0x00000000c0011344                rcu_init
                0x00000000c0011358                sort_main_extable
                0x00000000c0011794                hrtimers_init
                0x00000000c0011980                cred_init
                0x00000000c0011a64                timekeeping_init
                0x00000000c0011b98                ntp_init
                0x00000000c0011d40                tick_init
                0x00000000c001229c                cgroup_init_early
                0x00000000c0012490                cgroup_init
                0x00000000c00125b4                early_irq_init
                0x00000000c0012664                set_irq_noprobe
                0x00000000c00126b0                set_irq_probe
                0x00000000c00126fc                __rcu_init
 .init.text     0x00000000c0012740     0x1f24 mm/built-in.o
                0x00000000c0012f8c                bootmem_bootmap_pages
                0x00000000c00131ac                init_bootmem_node
                0x00000000c00131c4                init_bootmem
                0x00000000c0013204                free_all_bootmem_node
                0x00000000c0013230                free_all_bootmem
                0x00000000c0013264                free_bootmem_node
                0x00000000c00132a0                free_bootmem
                0x00000000c00132d0                reserve_bootmem_node
                0x00000000c001330c                reserve_bootmem
                0x00000000c001333c                __alloc_bootmem_nopanic
                0x00000000c0013354                __alloc_bootmem
                0x00000000c0013394                __alloc_bootmem_node
                0x00000000c0013408                __alloc_bootmem_node_nopanic
                0x00000000c0013454                __alloc_bootmem_low
                0x00000000c0013494                __alloc_bootmem_low_node
                0x00000000c0013508                set_dma_reserve
                0x00000000c0013524                page_alloc_init
                0x00000000c00135c8                free_area_init_node
                0x00000000c00138e8                free_area_init
                0x00000000c001390c                alloc_large_system_hash
                0x00000000c0013b40                page_writeback_init
                0x00000000c0013bf8                swap_setup
                0x00000000c0013e88                mminit_verify_pageflags_layout
                0x00000000c0013fcc                mmap_init
                0x00000000c001400c                anon_vma_init
                0x00000000c0014094                vmalloc_init
                0x00000000c001433c                kmem_cache_init
 .init.text     0x00000000c0014664     0x1a90 fs/built-in.o
                0x00000000c0014664                files_init
                0x00000000c00146dc                chrdev_init
                0x00000000c00147f8                vfs_caches_init_early
                0x00000000c0014888                vfs_caches_init
                0x00000000c00149e8                inode_init_early
                0x00000000c0014a74                inode_init
                0x00000000c0014b38                files_defer_init
                0x00000000c0014be4                mnt_init
                0x00000000c0014de0                buffer_init
                0x00000000c0014f3c                bdev_cache_init
                0x00000000c0015444                proc_init_inodecache
                0x00000000c001548c                proc_root_init
                0x00000000c0015558                proc_tty_init
                0x00000000c0015840                proc_sys_init
                0x00000000c001591c                proc_net_init
                0x00000000c00159f0                sysfs_inode_init
                0x00000000c0015a0c                sysfs_init
                0x00000000c0015b34                init_rootfs
                0x00000000c0015b78                fat_cache_init
                0x00000000c0015e38                fuse_dev_init
                0x00000000c0015ff4                fuse_ctl_init
 .init.text     0x00000000c00160f4      0x188 ipc/built-in.o
                0x00000000c0016120                ipc_init_proc_interface
                0x00000000c0016194                msg_init
                0x00000000c00161e4                sem_init
                0x00000000c0016220                shm_init
 .init.text     0x00000000c001627c      0x358 crypto/built-in.o
                0x00000000c0016294                crypto_init_proc
                0x00000000c001633c                testmgr_init
 .init.text     0x00000000c00165d4      0x56c block/built-in.o
                0x00000000c0016624                blk_dev_init
                0x00000000c001686c                printk_all_partitions
 .init.text     0x00000000c0016b40       0x40 lib/lib.a(idr.o)
                0x00000000c0016b40                idr_init_cache
 .init.text     0x00000000c0016b80       0x64 lib/lib.a(kobject_uevent.o)
 .init.text     0x00000000c0016be4       0x48 lib/lib.a(prio_tree.o)
                0x00000000c0016be4                prio_tree_init
 .init.text     0x00000000c0016c2c       0x80 lib/lib.a(radix-tree.o)
                0x00000000c0016c2c                radix_tree_init
 .init.text     0x00000000c0016cac      0x16c lib/built-in.o
 .init.text     0x00000000c0016e18     0x2cf0 drivers/built-in.o
                0x00000000c00171a8                console_init
                0x00000000c00174e0                vcs_init
                0x00000000c0017584                kbd_init
                0x00000000c001767c                console_map_init
                0x00000000c0017a34                vty_init
                0x00000000c0017c70                devices_init
                0x00000000c0017d2c                system_bus_init
                0x00000000c0017d74                buses_init
                0x00000000c0017db4                classes_init
                0x00000000c0017df0                platform_bus_init
                0x00000000c0017e34                cpu_dev_init
                0x00000000c0017e88                firmware_init
                0x00000000c0017ec0                driver_init
                0x00000000c0019068                rtc_dev_init
                0x00000000c00190b0                rtc_sysfs_init
                0x00000000c0019304                dm_target_init
                0x00000000c0019320                dm_linear_init
                0x00000000c0019358                dm_stripe_init
                0x00000000c00193e4                dm_interface_init
                0x00000000c00194a4                dm_kcopyd_init
 .init.text     0x00000000c0019b08     0x7744 net/built-in.o
                0x00000000c0019bd4                sk_init
                0x00000000c0019c30                skb_init
                0x00000000c001a0f4                netdev_boot_setup
                0x00000000c001a220                dev_mcast_init
                0x00000000c001a23c                dst_init
                0x00000000c001a2e4                rtnetlink_init
                0x00000000c001a81c                netfilter_init
                0x00000000c001a8d0                netfilter_log_init
                0x00000000c001a920                netfilter_queue_init
                0x00000000c001bcd0                ip_rt_init
                0x00000000c001be30                ip_static_sysctl_init
                0x00000000c001be54                inet_initpeers
                0x00000000c001bf24                ipfrag_init
                0x00000000c001bfb4                ip_init
                0x00000000c001c014                tcp_init
                0x00000000c001c2f8                tcp4_proc_init
                0x00000000c001c314                tcp_v4_init
                0x00000000c001c39c                raw_proc_init
                0x00000000c001c3b8                raw_proc_exit
                0x00000000c001c3d4                udp4_proc_init
                0x00000000c001c3f0                udp_table_init
                0x00000000c001c41c                udp_init
                0x00000000c001c490                udplite4_register
                0x00000000c001c558                arp_init
                0x00000000c001c680                icmp_init
                0x00000000c001c808                devinet_init
                0x00000000c001cbd4                igmp_mc_proc_init
                0x00000000c001cd24                ip_fib_init
                0x00000000c001cf10                fib_hash_init
                0x00000000c001cf74                fib_proc_init
                0x00000000c001d048                ip_misc_proc_init
                0x00000000c001d064                ip_mr_init
                0x00000000c001dd04                root_nfs_parse_addr
                0x00000000c001ec8c                nf_conntrack_ipv4_compat_init
                0x00000000c001f400                nf_nat_rule_init
                0x00000000c001f840                xfrm4_init
                0x00000000c001f860                xfrm4_state_init
                0x00000000c001f9d0                xfrm_init
                0x00000000c001f9f0                xfrm_state_init
                0x00000000c001facc                xfrm_input_init
                0x00000000c001fb0c                xfrm_sysctl_init
                0x00000000c001ff88                if6_proc_init
                0x00000000c001ffa4                addrconf_init
                0x00000000c0020150                ipv6_addr_label_init
                0x00000000c002016c                ipv6_addr_label_rtnl_register
                0x00000000c00201c8                ip6_route_init
                0x00000000c0020328                fib6_init
                0x00000000c00203c4                ndisc_init
                0x00000000c0020468                udpv6_init
                0x00000000c00204b8                udplitev6_init
                0x00000000c0020508                udplite6_proc_init
                0x00000000c0020524                raw6_proc_init
                0x00000000c0020540                rawv6_init
                0x00000000c00205fc                icmpv6_init
                0x00000000c0020658                igmp6_init
                0x00000000c0020674                ipv6_frag_init
                0x00000000c0020754                tcpv6_init
                0x00000000c00207c0                ipv6_exthdrs_init
                0x00000000c0020838                xfrm6_init
                0x00000000c0020878                xfrm6_state_init
                0x00000000c0020894                ipv6_netfilter_init
                0x00000000c00208b0                ipv6_misc_proc_init
                0x00000000c0020fc8                br_fdb_init
                0x00000000c0021028                br_netlink_init
                0x00000000c002107c                rpcauth_init_module
                0x00000000c00210a0                rpc_init_authunix
                0x00000000c00210b0                rpc_init_generic_auth
                0x00000000c00211dc                vlan_netlink_init
 *(.cpuinit.text)
 .cpuinit.text  0x00000000c002124c      0x16c init/built-in.o
                0x00000000c002124c                calibrate_delay
 .cpuinit.text  0x00000000c00213b8      0x4b0 kernel/built-in.o
                0x00000000c00213b8                init_idle_bootup_task
                0x00000000c00213d4                init_idle
                0x00000000c00214a4                idle_regs
                0x00000000c00214c4                fork_idle
 .cpuinit.text  0x00000000c0021868       0x44 drivers/built-in.o
                0x00000000c0021868                register_cpu
 *(.meminit.text)
 .meminit.text  0x00000000c00218ac      0x344 mm/built-in.o
                0x00000000c00218ac                init_currently_empty_zone
                0x00000000c00219ac                __free_pages_bootmem
                0x00000000c0021a68                memmap_init_zone
                0x00000000c0021b94                mminit_verify_page_links
                0x00000000c0021bf0                _einittext = .
                0x00000000c0021bf0                __proc_info_begin = .
 *(.proc.info.init)
 .proc.info.init
                0x00000000c0021bf0       0x34 arch/arm/mm/built-in.o
                0x00000000c0021c24                __proc_info_end = .
                0x00000000c0021c24                __arch_info_begin = .
 *(.arch.info.init)
 .arch.info.init
                0x00000000c0021c24       0x34 arch/arm/mach-goldfish/built-in.o
                0x00000000c0021c58                __arch_info_end = .
                0x00000000c0021c58                __tagtable_begin = .
 *(.taglist.init)
 .taglist.init  0x00000000c0021c58       0x38 arch/arm/kernel/built-in.o
 .taglist.init  0x00000000c0021c90       0x10 arch/arm/mm/built-in.o
                0x00000000c0021ca0                __tagtable_end = .
                0x00000000c0021ca0                . = ALIGN (0x10)
                0x00000000c0021ca0                __setup_start = .
 *(.init.setup)
 .init.setup    0x00000000c0021ca0       0xe4 init/built-in.o
 .init.setup    0x00000000c0021d84       0x24 arch/arm/kernel/built-in.o
 .init.setup    0x00000000c0021da8       0x18 arch/arm/mm/built-in.o
 .init.setup    0x00000000c0021dc0       0xd8 kernel/built-in.o
 .init.setup    0x00000000c0021e98       0x30 mm/built-in.o
 .init.setup    0x00000000c0021ec8       0x18 fs/built-in.o
 .init.setup    0x00000000c0021ee0        0xc block/built-in.o
 .init.setup    0x00000000c0021eec       0x3c drivers/built-in.o
 .init.setup    0x00000000c0021f28       0x54 net/built-in.o
                0x00000000c0021f7c                __setup_end = .
                0x00000000c0021f7c                __early_begin = .
 *(.early_param.init)
 .early_param.init
                0x00000000c0021f7c        0x8 arch/arm/kernel/built-in.o
 .early_param.init
                0x00000000c0021f84       0x30 arch/arm/mm/built-in.o
                0x00000000c0021fb4                __early_end = .
                0x00000000c0021fb4                __initcall_start = .
 *(.initcallearly.init)
 .initcallearly.init
                0x00000000c0021fb4        0x4 kernel/built-in.o
                0x00000000c0021fb8                __early_initcall_end = .
 *(.initcall0.init)
 .initcall0.init
                0x00000000c0021fb8        0x4 net/built-in.o
 *(.initcall0s.init)
 *(.initcall1.init)
 .initcall1.init
                0x00000000c0021fbc        0x4 arch/arm/kernel/built-in.o
 .initcall1.init
                0x00000000c0021fc0        0x8 arch/arm/mm/built-in.o
 .initcall1.init
                0x00000000c0021fc8       0x18 kernel/built-in.o
 .initcall1.init
                0x00000000c0021fe0       0x10 fs/built-in.o
 .initcall1.init
                0x00000000c0021ff0        0x4 lib/built-in.o
 .initcall1.init
                0x00000000c0021ff4        0x4 drivers/built-in.o
 .initcall1.init
                0x00000000c0021ff8        0x8 net/built-in.o
 *(.initcall1s.init)
 *(.initcall2.init)
 .initcall2.init
                0x00000000c0022000        0x4 mm/built-in.o
 .initcall2.init
                0x00000000c0022004        0x4 lib/lib.a(kobject_uevent.o)
 .initcall2.init
                0x00000000c0022008        0x8 drivers/built-in.o
 *(.initcall2s.init)
 *(.initcall3.init)
 .initcall3.init
                0x00000000c0022010        0x4 arch/arm/kernel/built-in.o
 *(.initcall3s.init)
 *(.initcall4.init)
 .initcall4.init
                0x00000000c0022014        0x4 arch/arm/kernel/built-in.o
 .initcall4.init
                0x00000000c0022018        0x8 kernel/built-in.o
 .initcall4.init
                0x00000000c0022020        0x4 mm/built-in.o
 .initcall4.init
                0x00000000c0022024        0x4 fs/built-in.o
 .initcall4.init
                0x00000000c0022028        0x4 crypto/built-in.o
 .initcall4.init
                0x00000000c002202c       0x10 block/built-in.o
 .initcall4.init
                0x00000000c002203c       0x20 drivers/built-in.o
 .initcall4.init
                0x00000000c002205c       0x18 net/built-in.o
 *(.initcall4s.init)
 *(.initcall5.init)
 .initcall5.init
                0x00000000c0022074        0x4 arch/arm/mm/built-in.o
 .initcall5.init
                0x00000000c0022078        0x4 kernel/built-in.o
 .initcall5.init
                0x00000000c002207c       0x10 fs/built-in.o
 .initcall5.init
                0x00000000c002208c        0x8 drivers/built-in.o
 .initcall5.init
                0x00000000c0022094        0xc net/built-in.o
 *(.initcall5s.init)
 *(.initcallrootfs.init)
 .initcallrootfs.init
                0x00000000c00220a0        0x4 init/built-in.o
 *(.initcall6.init)
 .initcall6.init
                0x00000000c00220a4        0x4 arch/arm/kernel/built-in.o
 .initcall6.init
                0x00000000c00220a8        0xc arch/arm/mach-goldfish/built-in.o
 .initcall6.init
                0x00000000c00220b4       0x44 kernel/built-in.o
 .initcall6.init
                0x00000000c00220f8       0x2c mm/built-in.o
 .initcall6.init
                0x00000000c0022124       0x78 fs/built-in.o
 .initcall6.init
                0x00000000c002219c        0x8 ipc/built-in.o
 .initcall6.init
                0x00000000c00221a4       0x40 crypto/built-in.o
 .initcall6.init
                0x00000000c00221e4       0x14 block/built-in.o
 .initcall6.init
                0x00000000c00221f8       0x10 lib/built-in.o
 .initcall6.init
                0x00000000c0022208       0x98 drivers/built-in.o
 .initcall6.init
                0x00000000c00222a0      0x1a0 net/built-in.o
 *(.initcall6s.init)
 *(.initcall7.init)
 .initcall7.init
                0x00000000c0022440        0x4 arch/arm/vfp/built-in.o
 .initcall7.init
                0x00000000c0022444       0x10 kernel/built-in.o
 .initcall7.init
                0x00000000c0022454        0x4 lib/built-in.o
 .initcall7.init
                0x00000000c0022458        0xc drivers/built-in.o
 .initcall7.init
                0x00000000c0022464        0x8 net/built-in.o
 *(.initcall7s.init)
                0x00000000c002246c                __initcall_end = .
                0x00000000c002246c                __con_initcall_start = .
 *(.con_initcall.init)
 .con_initcall.init
                0x00000000c002246c        0x4 drivers/built-in.o
                0x00000000c0022470                __con_initcall_end = .
                0x00000000c0022470                __security_initcall_start = .
 *(.security_initcall.init)
                0x00000000c0022470                __security_initcall_end = .
                0x00000000c0022480                . = ALIGN (0x20)
 *fill*         0x00000000c0022470       0x10 00
                0x00000000c0022480                __initramfs_start = .
 usr/built-in.o(.init.ramfs)
 .init.ramfs    0x00000000c0022480       0x86 usr/built-in.o
                0x00000000c0022506                __initramfs_end = .
                0x00000000c0023000                . = ALIGN (0x1000)
 *fill*         0x00000000c0022506      0xafa 00
                0x00000000c0023000                __per_cpu_start = .
 *(.data.percpu)
 *(.data.percpu.shared_aligned)
                0x00000000c0023000                __per_cpu_end = .
                0x00000000c0008000                __init_begin = _stext
 *(.init.data)
 .init.data     0x00000000c0023000      0xa55 init/built-in.o
                0x00000000c0023404                boot_command_line
                0x00000000c0023804                late_time_init
                0x00000000c002388c                rd_doload
                0x00000000c00238dc                rd_image_start
                0x00000000c00238e0                rd_prompt
 *fill*         0x00000000c0023a55        0x3 00
 .init.data     0x00000000c0023a58      0x854 arch/arm/kernel/built-in.o
                0x00000000c0023a58                init_arch_irq
                0x00000000c00242a8                __atags_pointer
 .init.data     0x00000000c00242ac       0xe0 arch/arm/mm/built-in.o
                0x00000000c0024360                v7_cache_fns
                0x00000000c0024384                v6_user_fns
 .init.data     0x00000000c002438c       0x10 arch/arm/mach-goldfish/built-in.o
 .init.data     0x00000000c002439c       0xd5 kernel/built-in.o
 *fill*         0x00000000c0024471        0x3 00
 .init.data     0x00000000c0024474      0x1b8 mm/built-in.o
                0x00000000c0024474                bootmem_node_data
                0x00000000c00244c4                initkmem_list3
 .init.data     0x00000000c002462c       0x38 fs/built-in.o
 .init.data     0x00000000c0024664        0xa block/built-in.o
 *fill*         0x00000000c002466e        0x2 00
 .init.data     0x00000000c0024670       0xc8 drivers/built-in.o
                0x00000000c00246d8                loopback_net_ops
 .init.data     0x00000000c0024738     0x1fc8 net/built-in.o
                0x00000000c0024748                net_core_path
                0x00000000c0024a28                ic_proto_enabled
                0x00000000c0024a2c                ic_set_manually
 *(.cpuinit.data)
 .cpuinit.data  0x00000000c0026700       0x34 kernel/built-in.o
 *(.cpuinit.rodata)
 *(.meminit.data)
 .meminit.data  0x00000000c0026734        0xc mm/built-in.o
                0x00000000c0026738                nr_kernel_pages
                0x00000000c002673c                nr_all_pages
 *(.meminit.rodata)
                0x00000000c0026740                __start___verbose_strings = .
 *(__verbose_strings)
                0x00000000c0026740                __stop___verbose_strings = .
                0x00000000c0026740                . = ALIGN (0x8)
                0x00000000c0026740                __start___verbose = .
 *(__verbose)
                0x00000000c0026740                __stop___verbose = .
                0x00000000c0027000                . = ALIGN (0x1000)
 *fill*         0x00000000c0026740      0x8c0 00
                0x00000000c0027000                __init_end = .

/DISCARD/
 *(.exit.text)
 *(.cpuexit.text)
 *(.memexit.text)
 *(.exit.data)
 *(.cpuexit.data)
 *(.cpuexit.rodata)
 *(.memexit.data)
 *(.memexit.rodata)
 *(.exitcall.exit)

.text           0x00000000c0027000   0x2fbb43
                0x00000000c0027000                _text = .
                0x00000000c0027000                __exception_text_start = .
 *(.exception.text)
 .exception.text
                0x00000000c0027000      0x180 arch/arm/kernel/built-in.o
                0x00000000c0027000                asm_do_IRQ
                0x00000000c0027064                do_undefinstr
 .exception.text
                0x00000000c0027180       0xb8 arch/arm/mm/built-in.o
                0x00000000c0027180                do_DataAbort
                0x00000000c002721c                do_PrefetchAbort
                0x00000000c0027238                __exception_text_end = .
                0x00000000c0027238                . = ALIGN (0x8)
 *(.text.hot)
 *(.text)
 .text          0x00000000c0027238        0x0 usr/built-in.o
 .text          0x00000000c0027238        0x0 arch/arm/kernel/head.o
 .text          0x00000000c0027238        0x0 arch/arm/kernel/init_task.o
 .text          0x00000000c0027238      0x3c0 init/built-in.o
                0x00000000c0027238                do_one_initcall
                0x00000000c00273c8                name_to_dev_t
 *fill*         0x00000000c00275f8        0x8 00
 .text          0x00000000c0027600     0x4914 arch/arm/kernel/built-in.o
                0x00000000c0027600                elf_check_arch
                0x00000000c0027698                arm_elf_read_implies_exec
                0x00000000c00276c8                elf_set_personality
                0x00000000c0027c20                ret_from_exception
                0x00000000c0027c30                __switch_to
                0x00000000c0027cd4                ret_to_user
                0x00000000c0027d00                ret_from_fork
                0x00000000c0027d40                vector_swi
                0x00000000c0027e04                sys_call_table
                0x00000000c0028448                pabort_ifar
                0x00000000c002844c                pabort_noifar
                0x00000000c0028460                show_interrupts
                0x00000000c00285c0                set_irq_flags
                0x00000000c0028650                disable_hlt
                0x00000000c0028674                enable_hlt
                0x00000000c0028698                kernel_thread
                0x00000000c0028710                dump_fpu
                0x00000000c0028754                arm_machine_restart
                0x00000000c0028924                cpu_idle
                0x00000000c0028984                machine_halt
                0x00000000c0028994                machine_power_off
                0x00000000c00289bc                machine_restart
                0x00000000c00289e0                __show_regs
                0x00000000c0028d7c                show_regs
                0x00000000c0028dcc                exit_thread
                0x00000000c0028ddc                flush_thread
                0x00000000c0028e34                release_thread
                0x00000000c0028e5c                copy_thread
                0x00000000c0028ed0                dump_task_regs
                0x00000000c0028f1c                get_wchan
                0x00000000c0029020                ptrace_set_bpt
                0x00000000c00294ac                ptrace_cancel_bpt
                0x00000000c00295b4                ptrace_disable
                0x00000000c00295d4                ptrace_break
                0x00000000c0029654                arch_ptrace
                0x00000000c0029abc                syscall_trace
                0x00000000c0029bb8                cpu_architecture
                0x00000000c0029e2c                cpu_init
                0x00000000c002a734                sys_sigsuspend
                0x00000000c002a7cc                sys_rt_sigsuspend
                0x00000000c002a8c8                sys_sigaction
                0x00000000c002a9f4                sys_sigreturn
                0x00000000c002aa90                sys_rt_sigreturn
                0x00000000c002ab50                do_notify_resume
                0x00000000c002ab94                kernel_execve
                0x00000000c002ac1c                do_mmap2
                0x00000000c002acdc                old_mmap
                0x00000000c002ae04                sys_arm_mremap
                0x00000000c002ae98                old_select
                0x00000000c002af18                sys_fork
                0x00000000c002af4c                sys_clone
                0x00000000c002af88                sys_vfork
                0x00000000c002afbc                sys_execve
                0x00000000c002b018                sys_arm_fadvise64_64
                0x00000000c002b040                walk_stackframe
                0x00000000c002b0a0                save_time_delta
                0x00000000c002b0d4                restore_time_delta
                0x00000000c002b114                __bug
                0x00000000c002b144                abort
                0x00000000c002b160                __readwrite_bug
                0x00000000c002b298                __bad_xchg
                0x00000000c002b2cc                __div0
                0x00000000c002b2ec                dump_backtrace_entry
                0x00000000c002b37c                show_stack
                0x00000000c002b3c0                die
                0x00000000c002b6d0                arm_notify_die
                0x00000000c002b724                register_undef_hook
                0x00000000c002b758                unregister_undef_hook
                0x00000000c002b794                do_unexp_fiq
                0x00000000c002b7bc                bad_mode
                0x00000000c002b810                arm_syscall
                0x00000000c002babc                baddataabort
                0x00000000c002bb14                __pte_error
                0x00000000c002bb44                __pmd_error
                0x00000000c002bb74                __pgd_error
                0x00000000c002bba4                module_alloc
                0x00000000c002bc04                module_free
                0x00000000c002bc1c                module_frob_arch_sections
                0x00000000c002bc30                apply_relocate
                0x00000000c002be50                apply_relocate_add
                0x00000000c002be78                module_finalize
                0x00000000c002be8c                module_arch_cleanup
                0x00000000c002be9c                _memcpy_fromio
                0x00000000c002bec4                _memcpy_toio
                0x00000000c002beec                _memset_io
 *fill*         0x00000000c002bf14        0xc 00
 .text          0x00000000c002bf20     0x3100 arch/arm/mm/built-in.o
                0x00000000c002bf50                dma_sync_sg_for_cpu
                0x00000000c002bf80                dma_unmap_sg
                0x00000000c002bfb0                dma_cache_maint
                0x00000000c002c094                dma_sync_sg_for_device
                0x00000000c002c108                dma_map_sg
                0x00000000c002c1d8                dma_free_coherent
                0x00000000c002c4d8                dma_mmap_writecombine
                0x00000000c002c504                dma_mmap_coherent
                0x00000000c002c8e0                dma_alloc_writecombine
                0x00000000c002c914                dma_alloc_coherent
                0x00000000c002c978                fixup_exception
                0x00000000c002c9bc                show_pte
                0x00000000c002cd14                do_bad_area
                0x00000000c002ce84                show_mem
                0x00000000c002cff8                free_initmem
                0x00000000c002d0d8                free_initrd_mem
                0x00000000c002d1c0                ioport_map
                0x00000000c002d1d0                ioport_unmap
                0x00000000c002d1e0                update_mmu_cache
                0x00000000c002d280                flush_cache_mm
                0x00000000c002d290                flush_cache_range
                0x00000000c002d2a0                flush_cache_page
                0x00000000c002d2b0                flush_ptrace_access
                0x00000000c002d2f8                __flush_dcache_page
                0x00000000c002d334                flush_dcache_page
                0x00000000c002d3d0                __flush_anon_page
                0x00000000c002d4a4                __check_kvm_seq
                0x00000000c002d600                __iounmap
                0x00000000c002d668                __arm_ioremap_pfn
                0x00000000c002d97c                __arm_ioremap
                0x00000000c002d9d4                arch_get_unmapped_area
                0x00000000c002db00                valid_phys_addr_range
                0x00000000c002db30                valid_mmap_phys_addr_range
                0x00000000c002db50                get_pgd_slow
                0x00000000c002dc30                free_pgd_slow
                0x00000000c002dcfc                adjust_cr
                0x00000000c002dd68                get_mem_type
                0x00000000c002dd8c                setup_mm_for_reboot
                0x00000000c002eb00                v7_early_abort
                0x00000000c002eb20                v7_flush_dcache_all
                0x00000000c002ebb4                v7_flush_kern_cache_all
                0x00000000c002ebcc                v7_flush_user_cache_range
                0x00000000c002ebcc                v7_flush_user_cache_all
                0x00000000c002ebd0                v7_coherent_user_range
                0x00000000c002ebd0                v7_coherent_kern_range
                0x00000000c002ec14                v7_flush_kern_dcache_page
                0x00000000c002ec40                v7_dma_inv_range
                0x00000000c002ec84                v7_dma_clean_range
                0x00000000c002ecb4                v7_dma_flush_range
                0x00000000c002edc4                __init_new_context
                0x00000000c002eddc                __new_context
                0x00000000c002ee7c                v7wbi_flush_user_tlb_range
                0x00000000c002eec8                v7wbi_flush_kern_tlb_range
                0x00000000c002ef20                cpu_v7_proc_init
                0x00000000c002ef24                cpu_v7_proc_fin
                0x00000000c002ef40                cpu_v7_reset
                0x00000000c002ef44                cpu_v7_do_idle
                0x00000000c002ef50                cpu_v7_dcache_clean_area
                0x00000000c002ef78                cpu_v7_switch_mm
                0x00000000c002efa0                cpu_v7_set_pte_ext
 .text          0x00000000c002f020      0x638 arch/arm/mach-goldfish/built-in.o
                0x00000000c002f408                sched_clock
                0x00000000c002f45c                goldfish_switch_work
                0x00000000c002f5c8                goldfish_mask_irq
                0x00000000c002f5e0                goldfish_unmask_irq
                0x00000000c002f5f8                goldfish_init_irq
 .text          0x00000000c002f658     0x4824 arch/arm/vfp/built-in.o
                0x00000000c002f7b4                vfp_raise_sigfpe
                0x00000000c002f964                VFP_bounce
                0x00000000c002fa38                vfp_sync_state
                0x00000000c002fa80                do_vfp
                0x00000000c002fa94                vfp_null_entry
                0x00000000c002fa9c                vfp_support_entry
                0x00000000c002fb7c                vfp_save_state
                0x00000000c002fbbc                vfp_get_float
                0x00000000c002fcc4                vfp_put_float
                0x00000000c002fdcc                vfp_get_double
                0x00000000c002fee0                vfp_put_double
                0x00000000c0030a80                __vfp_single_normaliseround
                0x00000000c00313f8                vfp_estimate_sqrt_significand
                0x00000000c00316d0                vfp_single_cpdo
                0x00000000c0032754                vfp_double_normaliseround
                0x00000000c0033d2c                vfp_double_cpdo
 .text          0x00000000c0033e7c    0x365d4 kernel/built-in.o
                0x00000000c00340c8                try_wait_for_completion
                0x00000000c00340f8                completion_done
                0x00000000c003411c                task_nice
                0x00000000c0036b2c                cond_resched_lock
                0x00000000c0036f74                sched_setscheduler
                0x00000000c0037144                default_wake_function
                0x00000000c003715c                wake_up_process
                0x00000000c0037178                set_user_nice
                0x00000000c0037298                runqueue_is_locked
                0x00000000c00372ac                task_rq_unlock_wait
                0x00000000c00372bc                sched_nr_latency_handler
                0x00000000c0037328                print_cfs_rq
                0x00000000c0037f60                print_rt_rq
                0x00000000c0038d9c                proc_sched_show_task
                0x00000000c0039c34                proc_sched_set_task
                0x00000000c0039cf0                task_curr
                0x00000000c0039d18                wake_up_state
                0x00000000c0039d30                sched_fork
                0x00000000c0039d7c                wake_up_new_task
                0x00000000c0039e6c                schedule_tail
                0x00000000c0039eb4                nr_running
                0x00000000c0039ed0                nr_uninterruptible
                0x00000000c0039ef0                nr_context_switches
                0x00000000c0039f10                nr_iowait
                0x00000000c0039f2c                nr_active
                0x00000000c0039f58                task_delta_exec
                0x00000000c0039fc0                task_sched_runtime
                0x00000000c003a034                thread_group_sched_runtime
                0x00000000c003a0bc                account_user_time
                0x00000000c003a13c                account_system_time
                0x00000000c003a270                account_steal_time
                0x00000000c003a29c                account_idle_time
                0x00000000c003a2dc                account_process_tick
                0x00000000c003a334                account_steal_ticks
                0x00000000c003a348                account_idle_ticks
                0x00000000c003a35c                task_utime
                0x00000000c003a3c8                task_stime
                0x00000000c003a414                task_gtime
                0x00000000c003a428                scheduler_tick
                0x00000000c003a4bc                __wake_up_common
                0x00000000c003a53c                complete_all
                0x00000000c003a580                complete
                0x00000000c003a5c4                __wake_up_sync
                0x00000000c003a604                __wake_up
                0x00000000c003a634                __wake_up_locked
                0x00000000c003a65c                rt_mutex_setprio
                0x00000000c003a79c                can_nice
                0x00000000c003a7d8                sys_nice
                0x00000000c003a87c                task_prio
                0x00000000c003a894                idle_cpu
                0x00000000c003a8c0                idle_task
                0x00000000c003a8dc                sched_setscheduler_nocheck
                0x00000000c003a8f4                sys_sched_setscheduler
                0x00000000c003a918                sys_sched_setparam
                0x00000000c003a934                sys_sched_getscheduler
                0x00000000c003a960                sys_sched_getparam
                0x00000000c003a9e8                sched_setaffinity
                0x00000000c003ab00                sys_sched_setaffinity
                0x00000000c003ab98                sched_getaffinity
                0x00000000c003abd8                sys_sched_getaffinity
                0x00000000c003ac54                sys_sched_yield
                0x00000000c003aca0                sys_sched_get_priority_max
                0x00000000c003ace0                sys_sched_get_priority_min
                0x00000000c003ad20                sys_sched_rr_get_interval
                0x00000000c003adf4                sched_show_task
                0x00000000c003aea0                show_state_filter
                0x00000000c003af1c                in_sched_functions
                0x00000000c003af58                normalize_rt_tasks
                0x00000000c003b07c                sched_create_group
                0x00000000c003b2d8                sched_destroy_group
                0x00000000c003b384                sched_move_task
                0x00000000c003b4a0                sched_group_set_shares
                0x00000000c003b618                sched_group_shares
                0x00000000c003b62c                sched_group_set_rt_runtime
                0x00000000c003b698                sched_group_rt_runtime
                0x00000000c003b728                sched_group_set_rt_period
                0x00000000c003b77c                sched_group_rt_period
                0x00000000c003b808                sched_rt_can_attach
                0x00000000c003b8c8                sched_rt_handler
                0x00000000c003ba4c                get_task_mm
                0x00000000c003bb8c                copy_fs_struct
                0x00000000c003bbbc                free_task
                0x00000000c003bbf8                __mmdrop
                0x00000000c003bd38                mmput
                0x00000000c003bdfc                nr_processes
                0x00000000c003be18                __put_task_struct
                0x00000000c003bf04                arch_dup_task_struct
                0x00000000c003bf20                mm_alloc
                0x00000000c003bf64                mm_release
                0x00000000c003bffc                dup_mm
                0x00000000c003c364                __cleanup_sighand
                0x00000000c003c3a4                __cleanup_signal
                0x00000000c003d0cc                sys_set_tid_address
                0x00000000c003d0fc                do_fork
                0x00000000c003d438                sys_unshare
                0x00000000c003d6d0                unshare_files
                0x00000000c003d734                register_exec_domain
                0x00000000c003d79c                unregister_exec_domain
                0x00000000c003d884                __set_personality
                0x00000000c003da2c                sys_personality
                0x00000000c003da98                test_taint
                0x00000000c003dbd0                add_taint
                0x00000000c003dbfc                warn_slowpath
                0x00000000c003dca0                print_tainted
                0x00000000c003dd4c                get_taint
                0x00000000c003dd68                oops_may_print
                0x00000000c003dd8c                oops_enter
                0x00000000c003ddb8                oops_exit
                0x00000000c003de6c                printk_ratelimit
                0x00000000c003de88                try_acquire_console_sem
                0x00000000c003dfe8                printk_timed_ratelimit
                0x00000000c003e040                acquire_console_sem
                0x00000000c003e160                early_printk
                0x00000000c003e178                log_buf_clear
                0x00000000c003e198                log_buf_copy
                0x00000000c003e248                do_syslog
                0x00000000c003e600                sys_syslog
                0x00000000c003e614                add_preferred_console
                0x00000000c003e628                update_console_cmdline
                0x00000000c003e6dc                is_console_locked
                0x00000000c003e6f8                printk_tick
                0x00000000c003e738                printk_needs_cpu
                0x00000000c003e754                wake_up_klogd
                0x00000000c003e788                release_console_sem
                0x00000000c003e91c                unregister_console
                0x00000000c003e9b8                console_start
                0x00000000c003e9e0                console_stop
                0x00000000c003ea08                resume_console
                0x00000000c003ea48                vprintk
                0x00000000c003ed0c                console_print
                0x00000000c003ed2c                suspend_console
                0x00000000c003ed78                register_console
                0x00000000c003f010                console_unblank
                0x00000000c003f094                console_device
                0x00000000c003f0f4                set_cpu_possible
                0x00000000c003f120                set_cpu_present
                0x00000000c003f14c                set_cpu_online
                0x00000000c003f178                set_cpu_active
                0x00000000c003f1a4                init_cpu_present
                0x00000000c003f1c4                init_cpu_possible
                0x00000000c003f1e4                init_cpu_online
                0x00000000c003f4b0                disallow_signal
                0x00000000c003f514                allow_signal
                0x00000000c003f5a0                release_task
                0x00000000c00403b4                session_of_pgrp
                0x00000000c00403f8                is_current_pgrp_orphaned
                0x00000000c0040428                __set_special_pids
                0x00000000c00404a8                get_files_struct
                0x00000000c00404d8                put_files_struct
                0x00000000c00405ac                reset_files_struct
                0x00000000c00405dc                exit_files
                0x00000000c0040608                put_fs_struct
                0x00000000c004065c                exit_fs
                0x00000000c0040688                do_exit
                0x00000000c0040ce0                complete_and_exit
                0x00000000c0040d04                daemonize
                0x00000000c0040f24                sys_exit
                0x00000000c0040f3c                do_group_exit
                0x00000000c0040ff0                sys_exit_group
                0x00000000c0041008                sys_waitid
                0x00000000c00410c8                sys_wait4
                0x00000000c0041198                do_getitimer
                0x00000000c0041328                sys_getitimer
                0x00000000c00413a0                it_real_fn
                0x00000000c00413c8                do_setitimer
                0x00000000c0041680                alarm_setitimer
                0x00000000c00416f8                sys_setitimer
                0x00000000c00417e8                jiffies_to_msecs
                0x00000000c0041800                jiffies_to_usecs
                0x00000000c0041818                timespec_trunc
                0x00000000c0041884                mktime
                0x00000000c004191c                set_normalized_timespec
                0x00000000c0041970                msecs_to_jiffies
                0x00000000c004199c                usecs_to_jiffies
                0x00000000c00419d4                timespec_to_jiffies
                0x00000000c0041a38                jiffies_to_timespec
                0x00000000c0041aac                timeval_to_jiffies
                0x00000000c0041b0c                jiffies_to_timeval
                0x00000000c0041b8c                jiffies_to_clock_t
                0x00000000c0041b9c                clock_t_to_jiffies
                0x00000000c0041bac                jiffies_64_to_clock_t
                0x00000000c0041bbc                get_jiffies_64
                0x00000000c0041bfc                current_fs_time
                0x00000000c0041c60                ns_to_timespec
                0x00000000c0041ccc                ns_to_timeval
                0x00000000c0041d0c                sys_gettimeofday
                0x00000000c0041dc8                do_sys_settimeofday
                0x00000000c0041ee0                sys_settimeofday
                0x00000000c0041fd0                sys_adjtimex
                0x00000000c0042080                nsec_to_clock_t
                0x00000000c00420d0                timespec_add_safe
                0x00000000c0042148                tasklet_init
                0x00000000c0042180                __tasklet_hi_schedule
                0x00000000c0042200                __tasklet_schedule
                0x00000000c0042280                tasklet_kill
                0x00000000c004230c                local_bh_disable
                0x00000000c0042334                _local_bh_enable
                0x00000000c004253c                __send_remote_softirq
                0x00000000c00425c4                send_remote_softirq
                0x00000000c00425ec                __do_softirq
                0x00000000c00426ec                do_softirq
                0x00000000c0042740                local_bh_enable_ip
                0x00000000c00427e8                local_bh_enable
                0x00000000c0042974                irq_enter
                0x00000000c00429d8                irq_exit
                0x00000000c0042a6c                raise_softirq_irqoff
                0x00000000c0042ad0                raise_softirq
                0x00000000c0042b40                open_softirq
                0x00000000c0042b60                arch_init_chip_data
                0x00000000c0042c00                request_resource
                0x00000000c0042c1c                release_resource
                0x00000000c0042c6c                allocate_resource
                0x00000000c0042e9c                adjust_resource
                0x00000000c00430bc                __release_region
                0x00000000c004316c                __request_region
                0x00000000c0043208                __devm_request_region
                0x00000000c0043298                __check_region
                0x00000000c004339c                __devm_release_region
                0x00000000c004340c                insert_resource
                0x00000000c0043428                insert_resource_expand_to_fit
                0x00000000c004349c                resource_alignment
                0x00000000c00434e8                iomem_map_sanity_check
                0x00000000c00435b4                iomem_is_exclusive
                0x00000000c00436d4                sysctl_jiffies
                0x00000000c00437b0                sysctl_data
                0x00000000c00438f0                sysctl_string
                0x00000000c0043a7c                sysctl_ms_jiffies
                0x00000000c0043b54                unregister_sysctl_table
                0x00000000c0043d74                sysctl_intvec
                0x00000000c0044358                proc_dointvec_ms_jiffies
                0x00000000c0044398                proc_dointvec_userhz_jiffies
                0x00000000c00443d8                proc_dointvec_jiffies
                0x00000000c0044418                proc_dointvec_minmax
                0x00000000c0044468                proc_dointvec
                0x00000000c0044894                proc_doulongvec_ms_jiffies_minmax
                0x00000000c00448e0                proc_doulongvec_minmax
                0x00000000c0044a00                proc_dostring
                0x00000000c0044cc8                sysctl_head_get
                0x00000000c0044ce4                sysctl_head_put
                0x00000000c0044d0c                sysctl_head_grab
                0x00000000c0044d4c                sysctl_head_finish
                0x00000000c0044d88                __sysctl_head_next
                0x00000000c0044e68                sysctl_head_next
                0x00000000c0044e94                register_sysctl_root
                0x00000000c0044ec4                sysctl_perm
                0x00000000c0044f50                do_sysctl
                0x00000000c0045138                sys_sysctl
                0x00000000c00452a4                __register_sysctl_paths
                0x00000000c004554c                register_sysctl_paths
                0x00000000c0045584                register_sysctl_table
                0x00000000c00455a4                sysctl_is_seen
                0x00000000c00455e4                setup_sysctl_set
                0x00000000c0045728                capable
                0x00000000c004579c                sys_capget
                0x00000000c00458e0                sys_capset
                0x00000000c0045b10                ptrace_fork
                0x00000000c0045b20                __ptrace_link
                0x00000000c0045b6c                __ptrace_unlink
                0x00000000c0045bfc                ptrace_check_attach
                0x00000000c0045c80                __ptrace_may_access
                0x00000000c0045d5c                ptrace_may_access
                0x00000000c0045d78                ptrace_attach
                0x00000000c0045e5c                ptrace_detach
                0x00000000c0045edc                ptrace_readdata
                0x00000000c0045fa4                ptrace_writedata
                0x00000000c0046080                ptrace_traceme
                0x00000000c00460f0                ptrace_get_task_struct
                0x00000000c004612c                sys_ptrace
                0x00000000c00461dc                generic_ptrace_peekdata
                0x00000000c0046224                generic_ptrace_pokedata
                0x00000000c0046264                ptrace_request
                0x00000000c004654c                __round_jiffies
                0x00000000c0046564                __round_jiffies_relative
                0x00000000c0046590                round_jiffies
                0x00000000c00465ac                round_jiffies_relative
                0x00000000c00465c4                __round_jiffies_up
                0x00000000c00465dc                __round_jiffies_up_relative
                0x00000000c0046608                round_jiffies_up
                0x00000000c0046624                round_jiffies_up_relative
                0x00000000c00466c4                init_timer
                0x00000000c00466ec                init_timer_deferrable
                0x00000000c0046718                del_timer
                0x00000000c004679c                __mod_timer
                0x00000000c0046864                msleep
                0x00000000c004688c                msleep_interruptible
                0x00000000c0046b24                mod_timer
                0x00000000c0046b74                add_timer_on
                0x00000000c0046bdc                get_next_timer_interrupt
                0x00000000c0046dec                run_local_timers
                0x00000000c0046e08                update_process_times
                0x00000000c0046e68                do_timer
                0x00000000c0046f34                sys_getpid
                0x00000000c0046f60                sys_getppid
                0x00000000c0046f90                sys_getuid
                0x00000000c0046fb8                sys_geteuid
                0x00000000c0046fe0                sys_getgid
                0x00000000c0047008                sys_getegid
                0x00000000c0047030                sys_gettid
                0x00000000c0047058                do_sysinfo
                0x00000000c0047204                sys_sysinfo
                0x00000000c00472c0                uids_sysfs_init
                0x00000000c00472d4                task_can_switch_user
                0x00000000c00472e8                find_user
                0x00000000c0047334                free_uid
                0x00000000c00473b0                alloc_uid
                0x00000000c004750c                block_all_signals
                0x00000000c004754c                __fatal_signal_pending
                0x00000000c0047b14                recalc_sigpending
                0x00000000c0047b6c                sigprocmask
                0x00000000c0047c60                unblock_all_signals
                0x00000000c0047ca0                next_signal
                0x00000000c0047e3c                dequeue_signal
                0x00000000c0047f88                flush_sigqueue
                0x00000000c0047fd0                flush_signals
                0x00000000c0048020                flush_itimer_signals
                0x00000000c0048060                ignore_signals
                0x00000000c0048098                flush_signal_handlers
                0x00000000c00480f8                unhandled_signal
                0x00000000c0048140                signal_wake_up
                0x00000000c0048590                send_sig_info
                0x00000000c00485c0                send_sig
                0x00000000c00485e4                recalc_sigpending_and_wake
                0x00000000c0048610                __group_send_sig_info
                0x00000000c00489c8                kill_pid_info_as_uid
                0x00000000c0048a8c                force_sig_info
                0x00000000c0048b44                force_sig
                0x00000000c0048b60                force_sig_specific
                0x00000000c0048b7c                zap_other_threads
                0x00000000c0048bd8                lock_task_sighand
                0x00000000c0048d04                group_send_sig_info
                0x00000000c0048d74                __kill_pgrp_info
                0x00000000c0048de0                kill_pgrp
                0x00000000c0048e08                kill_pid_info
                0x00000000c0048e54                kill_pid
                0x00000000c0048e7c                kill_proc_info
                0x00000000c0048eac                force_sigsegv
                0x00000000c0048ee8                sigqueue_alloc
                0x00000000c0048f24                sigqueue_free
                0x00000000c0048f80                send_sigqueue
                0x00000000c00490b8                do_notify_parent
                0x00000000c0049280                ptrace_notify
                0x00000000c0049314                get_signal_to_deliver
                0x00000000c0049604                exit_signals
                0x00000000c00496f8                sys_restart_syscall
                0x00000000c0049720                do_no_restart_syscall
                0x00000000c0049734                sys_rt_sigprocmask
                0x00000000c0049860                do_sigpending
                0x00000000c004991c                sys_rt_sigpending
                0x00000000c0049930                copy_siginfo_to_user
                0x00000000c0049b60                sys_rt_sigtimedwait
                0x00000000c0049da8                sys_kill
                0x00000000c0049ed4                sys_tgkill
                0x00000000c0049efc                sys_tkill
                0x00000000c0049f28                sys_rt_sigqueueinfo
                0x00000000c0049fc0                do_sigaction
                0x00000000c004a180                do_sigaltstack
                0x00000000c004a300                sys_sigpending
                0x00000000c004a318                sys_sigprocmask
                0x00000000c004a478                sys_rt_sigaction
                0x00000000c004a570                sys_pause
                0x00000000c004a5a4                arch_vma_name
                0x00000000c004a5cc                groups_free
                0x00000000c004a624                set_groups
                0x00000000c004a748                set_current_groups
                0x00000000c004a794                groups_alloc
                0x00000000c004a918                kernel_power_off
                0x00000000c004a97c                kernel_halt
                0x00000000c004a9c8                emergency_restart
                0x00000000c004aa9c                orderly_poweroff
                0x00000000c004ab64                sys_setpriority
                0x00000000c004ad3c                sys_getpriority
                0x00000000c004aed0                kernel_restart_prepare
                0x00000000c004af0c                kernel_restart
                0x00000000c004af6c                sys_reboot
                0x00000000c004b114                ctrl_alt_del
                0x00000000c004b15c                sys_setregid
                0x00000000c004b254                sys_setgid
                0x00000000c004b2e8                sys_setreuid
                0x00000000c004b41c                sys_setuid
                0x00000000c004b4e4                sys_setresuid
                0x00000000c004b630                sys_getresuid
                0x00000000c004b688                sys_setresgid
                0x00000000c004b798                sys_getresgid
                0x00000000c004b7f0                sys_setfsuid
                0x00000000c004b8ac                sys_setfsgid
                0x00000000c004b94c                do_sys_times
                0x00000000c004b9c8                sys_times
                0x00000000c004ba3c                sys_setpgid
                0x00000000c004bb94                sys_getpgid
                0x00000000c004bbf4                sys_getpgrp
                0x00000000c004bc0c                sys_getsid
                0x00000000c004bc6c                sys_setsid
                0x00000000c004bcf4                groups_search
                0x00000000c004bd60                in_egroup_p
                0x00000000c004bda4                in_group_p
                0x00000000c004bde8                sys_getgroups
                0x00000000c004bec0                sys_setgroups
                0x00000000c004c004                sys_newuname
                0x00000000c004c07c                sys_sethostname
                0x00000000c004c170                sys_gethostname
                0x00000000c004c20c                sys_setdomainname
                0x00000000c004c308                sys_getrlimit
                0x00000000c004c38c                sys_setrlimit
                0x00000000c004c4bc                getrusage
                0x00000000c004c70c                sys_getrusage
                0x00000000c004c754                sys_umask
                0x00000000c004c798                sys_prctl
                0x00000000c004c984                sys_getcpu
                0x00000000c004c9cc                call_usermodehelper_setcleanup
                0x00000000c004c9e0                call_usermodehelper_setkeys
                0x00000000c004c9fc                call_usermodehelper_stdinpipe
                0x00000000c004ca54                call_usermodehelper_setup
                0x00000000c004cc4c                call_usermodehelper_freeinfo
                0x00000000c004ccc8                call_usermodehelper_exec
                0x00000000c004cdd0                request_module
                0x00000000c004cf10                call_usermodehelper_pipe
                0x00000000c004cfe8                usermodehelper_disable
                0x00000000c004d0b0                usermodehelper_enable
                0x00000000c004d3ac                queue_delayed_work_on
                0x00000000c004d498                schedule_delayed_work_on
                0x00000000c004d5fc                destroy_workqueue
                0x00000000c004d668                __create_workqueue_key
                0x00000000c004d7a8                flush_workqueue
                0x00000000c004d7c0                flush_scheduled_work
                0x00000000c004d954                cancel_delayed_work_sync
                0x00000000c004d96c                cancel_work_sync
                0x00000000c004d984                flush_work
                0x00000000c004da90                queue_work_on
                0x00000000c004db08                schedule_work_on
                0x00000000c004db2c                queue_work
                0x00000000c004db50                schedule_work
                0x00000000c004db74                execute_in_process_context
                0x00000000c004dbd4                queue_delayed_work
                0x00000000c004dc0c                schedule_delayed_work
                0x00000000c004dc38                schedule_on_each_cpu
                0x00000000c004dca8                keventd_up
                0x00000000c004dccc                current_is_keventd
                0x00000000c004dd24                is_container_init
                0x00000000c004dd58                find_pid_ns
                0x00000000c004dde4                find_vpid
                0x00000000c004de10                pid_task
                0x00000000c004de44                find_task_by_pid_type_ns
                0x00000000c004de6c                find_task_by_vpid
                0x00000000c004dea0                find_task_by_pid_ns
                0x00000000c004dec4                find_get_pid
                0x00000000c004def4                task_active_pid_ns
                0x00000000c004df18                put_pid
                0x00000000c004dfcc                next_pidmap
                0x00000000c004e048                free_pid
                0x00000000c004e154                alloc_pid
                0x00000000c004e464                attach_pid
                0x00000000c004e4a8                detach_pid
                0x00000000c004e4c0                change_pid
                0x00000000c004e4f0                transfer_pid
                0x00000000c004e554                get_task_pid
                0x00000000c004e58c                get_pid_task
                0x00000000c004e5c0                pid_nr_ns
                0x00000000c004e608                task_session_nr_ns
                0x00000000c004e624                task_pgrp_nr_ns
                0x00000000c004e640                task_tgid_nr_ns
                0x00000000c004e65c                task_pid_nr_ns
                0x00000000c004e674                pid_vnr
                0x00000000c004e6a0                find_ge_pid
                0x00000000c004e6e4                synchronize_rcu
                0x00000000c004e830                rcu_barrier_sched
                0x00000000c004e848                rcu_barrier_bh
                0x00000000c004e860                rcu_barrier
                0x00000000c004e878                wakeme_after_rcu
                0x00000000c004e890                rcu_scheduler_starting
                0x00000000c004e8d0                search_exception_tables
                0x00000000c004e90c                core_kernel_text
                0x00000000c004e984                __kernel_text_address
                0x00000000c004e9bc                kernel_text_address
                0x00000000c004e9f4                func_ptr_is_kernel_text
                0x00000000c004ea2c                param_set_bool
                0x00000000c004eaac                param_set_invbool
                0x00000000c004eaf4                param_array_get
                0x00000000c004ec64                param_get_string
                0x00000000c004ee2c                param_get_invbool
                0x00000000c004ee5c                param_get_bool
                0x00000000c004ee8c                param_get_charp
                0x00000000c004eeb0                param_get_ulong
                0x00000000c004eed4                param_get_long
                0x00000000c004eef8                param_get_uint
                0x00000000c004ef1c                param_get_int
                0x00000000c004ef40                param_get_ushort
                0x00000000c004ef64                param_get_short
                0x00000000c004ef88                param_get_byte
                0x00000000c004efac                param_set_ulong
                0x00000000c004eff4                param_set_uint
                0x00000000c004f03c                param_set_ushort
                0x00000000c004f094                param_set_byte
                0x00000000c004f0ec                param_set_long
                0x00000000c004f134                param_set_int
                0x00000000c004f17c                param_set_short
                0x00000000c004f1d8                param_set_copystring
                0x00000000c004f250                param_set_charp
                0x00000000c004f2b4                param_array_set
                0x00000000c004f3bc                parse_args
                0x00000000c004f604                module_param_sysfs_setup
                0x00000000c004f6a8                module_param_sysfs_remove
                0x00000000c004f704                do_posix_clock_nosettime
                0x00000000c004f718                do_posix_clock_nonanosleep
                0x00000000c004f96c                posix_timer_event
                0x00000000c004fad8                register_posix_clock
                0x00000000c004fb38                do_schedule_next_timer
                0x00000000c004fc4c                sys_timer_create
                0x00000000c004ffb4                sys_timer_gettime
                0x00000000c0050070                sys_timer_getoverrun
                0x00000000c00500a8                sys_timer_settime
                0x00000000c00503a8                sys_timer_delete
                0x00000000c005048c                exit_itimers
                0x00000000c0050568                sys_clock_settime
                0x00000000c005065c                sys_clock_gettime
                0x00000000c0050740                sys_clock_getres
                0x00000000c0050818                sys_clock_nanosleep
                0x00000000c0050958                clock_nanosleep_restart
                0x00000000c00509a4                kthread_should_stop
                0x00000000c00509dc                kthread_bind
                0x00000000c0050aa0                kthread_stop
                0x00000000c0050b44                kthread_create
                0x00000000c0050bf8                kthreadd
                0x00000000c0050d20                init_waitqueue_head
                0x00000000c0050d38                add_wait_queue
                0x00000000c0050d78                add_wait_queue_exclusive
                0x00000000c0050db8                remove_wait_queue
                0x00000000c0050dfc                prepare_to_wait
                0x00000000c0050e58                prepare_to_wait_exclusive
                0x00000000c0050eb4                bit_waitqueue
                0x00000000c0050f14                __wake_up_bit
                0x00000000c0050f50                wake_up_bit
                0x00000000c0050f78                abort_exclusive_wait
                0x00000000c0050ffc                finish_wait
                0x00000000c0051064                autoremove_wake_function
                0x00000000c00510a0                wake_bit_function
                0x00000000c005110c                __kfifo_get
                0x00000000c0051188                __kfifo_put
                0x00000000c0051208                kfifo_free
                0x00000000c005122c                kfifo_init
                0x00000000c00512a8                kfifo_alloc
                0x00000000c0051338                compat_sys_mq_open
                0x00000000c0051338                sys_acct
                0x00000000c0051338                sys_mq_open
                0x00000000c0051338                sys_ni_syscall
                0x00000000c0051338                compat_sys_futex
                0x00000000c0051338                sys_mq_timedreceive
                0x00000000c0051338                sys_epoll_pwait
                0x00000000c0051338                sys_mq_notify
                0x00000000c0051338                compat_sys_recvmsg
                0x00000000c0051338                sys_mbind
                0x00000000c0051338                sys32_sysctl
                0x00000000c0051338                compat_sys_mq_notify
                0x00000000c0051338                sys_migrate_pages
                0x00000000c0051338                compat_sys_mq_timedreceive
                0x00000000c0051338                compat_sys_epoll_pwait
                0x00000000c0051338                compat_sys_set_robust_list
                0x00000000c0051338                compat_sys_setsockopt
                0x00000000c0051338                sys_pciconfig_iobase
                0x00000000c0051338                sys_pciconfig_read
                0x00000000c0051338                sys_keyctl
                0x00000000c0051338                compat_sys_ipc
                0x00000000c0051338                sys32_quotactl
                0x00000000c0051338                sys_quotactl
                0x00000000c0051338                ppc_rtas
                0x00000000c0051338                compat_sys_get_robust_list
                0x00000000c0051338                sys_spu_run
                0x00000000c0051338                compat_sys_signalfd
                0x00000000c0051338                sys_add_key
                0x00000000c0051338                sys_vm86old
                0x00000000c0051338                sys_mq_unlink
                0x00000000c0051338                sys_set_mempolicy
                0x00000000c0051338                compat_sys_move_pages
                0x00000000c0051338                sys_socketcall
                0x00000000c0051338                compat_sys_socketcall
                0x00000000c0051338                compat_sys_sysctl
                0x00000000c0051338                compat_sys_set_mempolicy
                0x00000000c0051338                sys_request_key
                0x00000000c0051338                compat_sys_timerfd_gettime
                0x00000000c0051338                compat_sys_mq_timedsend
                0x00000000c0051338                sys_kexec_load
                0x00000000c0051338                compat_sys_mbind
                0x00000000c0051338                sys_get_mempolicy
                0x00000000c0051338                sys32_ipc
                0x00000000c0051338                sys_move_pages
                0x00000000c0051338                compat_sys_keyctl
                0x00000000c0051338                sys_mq_getsetattr
                0x00000000c0051338                compat_sys_migrate_pages
                0x00000000c0051338                compat_sys_mq_getsetattr
                0x00000000c0051338                compat_sys_kexec_load
                0x00000000c0051338                compat_sys_signalfd4
                0x00000000c0051338                sys_delete_module
                0x00000000c0051338                sys_vm86
                0x00000000c0051338                sys_lookup_dcookie
                0x00000000c0051338                compat_sys_timerfd_settime
                0x00000000c0051338                compat_sys_getsockopt
                0x00000000c0051338                sys_mq_timedsend
                0x00000000c0051338                sys_pciconfig_write
                0x00000000c0051338                sys_subpage_prot
                0x00000000c0051338                compat_sys_sendmsg
                0x00000000c0051338                compat_sys_get_mempolicy
                0x00000000c0051338                sys_spu_create
                0x00000000c0051930                posix_cpu_clock_getres
                0x00000000c00519a4                posix_cpu_clock_set
                0x00000000c00519c0                thread_group_cputime
                0x00000000c0051af4                thread_group_cputimer
                0x00000000c0051c04                posix_cpu_clock_get
                0x00000000c0051d10                posix_cpu_timer_create
                0x00000000c0051e48                posix_cpu_timer_del
                0x00000000c0051efc                posix_cpu_timers_exit
                0x00000000c0051f30                posix_cpu_timers_exit_group
                0x00000000c0051f70                posix_cpu_timer_get
                0x00000000c005217c                posix_cpu_timer_schedule
                0x00000000c0052308                posix_cpu_timer_set
                0x00000000c00527c0                posix_cpu_nsleep_restart
                0x00000000c0052898                run_posix_cpu_timers
                0x00000000c0052fe8                set_process_cpu_timer
                0x00000000c00530d4                update_rlimit_cpu
                0x00000000c005313c                posix_cpu_nsleep
                0x00000000c0053268                __mutex_init
                0x00000000c0053298                hrtimer_get_remaining
                0x00000000c0053300                hrtimer_get_res
                0x00000000c0053338                ktime_sub_ns
                0x00000000c00533e4                ktime_add_ns
                0x00000000c00534b0                hrtimer_init
                0x00000000c005370c                hrtimer_try_to_cancel
                0x00000000c0053768                hrtimer_cancel
                0x00000000c005381c                ktime_get_ts
                0x00000000c0053880                ktime_get
                0x00000000c00538b8                ktime_get_real
                0x00000000c00539ec                ktime_divns
                0x00000000c0053a54                ktime_add_safe
                0x00000000c0053aec                hrtimer_forward
                0x00000000c0053c6c                hrtimer_start_range_ns
                0x00000000c0053e48                hrtimer_start
                0x00000000c0053e74                clock_was_set
                0x00000000c0053ea4                hres_timers_resume
                0x00000000c0053f0c                hrtimer_get_next_event
                0x00000000c0053fd8                hrtimer_interrupt
                0x00000000c00541c0                hrtimer_peek_ahead_timers
                0x00000000c005421c                hrtimer_run_pending
                0x00000000c00542c8                hrtimer_run_queues
                0x00000000c00543d8                hrtimer_init_sleeper
                0x00000000c00543f8                hrtimer_nanosleep
                0x00000000c0054524                sys_nanosleep
                0x00000000c00545d4                downgrade_write
                0x00000000c00545e8                up_write
                0x00000000c00545fc                up_read
                0x00000000c0054610                down_write_trylock
                0x00000000c0054624                down_read_trylock
                0x00000000c005477c                free_nsproxy
                0x00000000c00547d0                copy_namespaces
                0x00000000c005489c                unshare_nsproxy_namespaces
                0x00000000c0054914                switch_task_namespaces
                0x00000000c005495c                exit_task_namespaces
                0x00000000c0054974                srcu_read_lock
                0x00000000c00549a0                srcu_read_unlock
                0x00000000c00549c0                srcu_batches_completed
                0x00000000c00549d4                init_srcu_struct
                0x00000000c0054a28                synchronize_srcu
                0x00000000c0054a9c                cleanup_srcu_struct
                0x00000000c0054ae4                down_trylock
                0x00000000c0054b10                up
                0x00000000c0054b4c                down
                0x00000000c0054b80                down_interruptible
                0x00000000c0054bb8                down_timeout
                0x00000000c0054bf0                down_killable
                0x00000000c0054d18                atomic_notifier_chain_register
                0x00000000c0054d38                __atomic_notifier_call_chain
                0x00000000c0054d5c                atomic_notifier_call_chain
                0x00000000c0054d84                raw_notifier_chain_register
                0x00000000c0054d98                raw_notifier_chain_unregister
                0x00000000c0054dac                __raw_notifier_call_chain
                0x00000000c0054dd0                raw_notifier_call_chain
                0x00000000c0054df8                register_die_notifier
                0x00000000c0054e20                __srcu_notifier_call_chain
                0x00000000c0054e88                srcu_notifier_call_chain
                0x00000000c0054eb0                __blocking_notifier_call_chain
                0x00000000c0054f18                blocking_notifier_call_chain
                0x00000000c0054f40                blocking_notifier_chain_cond_register
                0x00000000c0054fa0                atomic_notifier_chain_unregister
                0x00000000c0054fcc                unregister_die_notifier
                0x00000000c0054fec                srcu_init_notifier_head
                0x00000000c0055038                srcu_notifier_chain_register
                0x00000000c0055098                srcu_notifier_chain_unregister
                0x00000000c0055100                blocking_notifier_chain_unregister
                0x00000000c0055160                unregister_reboot_notifier
                0x00000000c0055180                blocking_notifier_chain_register
                0x00000000c00551e0                register_reboot_notifier
                0x00000000c0055200                notify_die
                0x00000000c0055370                pm_qos_requirement
                0x00000000c0055390                pm_qos_remove_notifier
                0x00000000c00553b4                pm_qos_add_notifier
                0x00000000c005547c                pm_qos_remove_requirement
                0x00000000c005557c                pm_qos_update_requirement
                0x00000000c00556b8                pm_qos_add_requirement
                0x00000000c0055820                sched_clock_init
                0x00000000c0055840                sched_clock_cpu
                0x00000000c0055874                cpu_clock
                0x00000000c0055894                override_creds
                0x00000000c00558d8                set_security_override
                0x00000000c00558ec                set_security_override_from_ctx
                0x00000000c0055900                set_create_files_as
                0x00000000c0055924                prepare_creds
                0x00000000c0055a4c                __put_cred
                0x00000000c0055a88                revert_creds
                0x00000000c0055af4                prepare_kernel_cred
                0x00000000c0055be0                abort_creds
                0x00000000c0055c44                commit_creds
                0x00000000c0055ecc                prepare_exec_creds
                0x00000000c0055ef0                prepare_usermodehelper_creds
                0x00000000c0055f90                copy_creds
                0x00000000c0056478                async_synchronize_cookie_domain
                0x00000000c0056608                async_synchronize_cookie
                0x00000000c0056624                async_synchronize_full
                0x00000000c0056660                async_synchronize_full_domain
                0x00000000c005679c                async_schedule_domain
                0x00000000c00567b0                async_schedule
                0x00000000c00567cc                thaw_process
                0x00000000c005681c                refrigerator
                0x00000000c00568c8                freeze_task
                0x00000000c005697c                cancel_freezing
                0x00000000c0056a9c                get_seconds
                0x00000000c0056ab8                getrawmonotonic
                0x00000000c0056b90                current_kernel_time
                0x00000000c0056bd4                getnstimeofday
                0x00000000c0056cd0                do_gettimeofday
                0x00000000c0056d0c                update_xtime_cache
                0x00000000c0056d90                do_settimeofday
                0x00000000c0056e68                timekeeping_valid_for_hres
                0x00000000c0056ea8                read_persistent_clock
                0x00000000c0056ff0                update_wall_time
                0x00000000c00575d4                getboottime
                0x00000000c0057608                monotonic_to_bootbased
                0x00000000c0057830                ntp_clear
                0x00000000c005788c                second_overflow
                0x00000000c00579c8                do_adjtimex
                0x00000000c0058308                clocksource_register
                0x00000000c0058368                clocksource_resume
                0x00000000c00583c8                clocksource_touch_watchdog
                0x00000000c00583d8                clocksource_get_next
                0x00000000c005842c                clocksource_change_rating
                0x00000000c0058484                clocksource_unregister
                0x00000000c0059128                sysrq_timer_list_show
                0x00000000c0059144                clockevents_notify
                0x00000000c00591c0                clockevent_delta2ns
                0x00000000c0059254                clockevents_set_mode
                0x00000000c005928c                clockevents_shutdown
                0x00000000c00592b4                clockevents_program_event
                0x00000000c00593c4                clockevents_register_notifier
                0x00000000c00593e4                clockevents_register_device
                0x00000000c00594d8                clockevents_handle_noop
                0x00000000c00594e8                clockevents_exchange_device
                0x00000000c0059634                tick_handle_periodic
                0x00000000c005971c                tick_get_device
                0x00000000c0059734                tick_is_oneshot_available
                0x00000000c005975c                tick_setup_periodic
                0x00000000c0059a7c                tick_dev_program_event
                0x00000000c0059b58                tick_program_event
                0x00000000c0059b94                tick_resume_oneshot
                0x00000000c0059bd4                tick_setup_oneshot
                0x00000000c0059c1c                tick_switch_to_oneshot
                0x00000000c0059cbc                tick_init_highres
                0x00000000c005a160                get_cpu_idle_time_us
                0x00000000c005a210                tick_get_tick_sched
                0x00000000c005a228                tick_nohz_stop_sched_tick
                0x00000000c005a5bc                tick_nohz_get_sleep_length
                0x00000000c005a5dc                tick_nohz_restart_sched_tick
                0x00000000c005a784                tick_check_idle
                0x00000000c005a7f8                tick_setup_sched_timer
                0x00000000c005a94c                tick_cancel_sched_timer
                0x00000000c005a980                tick_clock_notify
                0x00000000c005a9b0                tick_oneshot_notify
                0x00000000c005a9e0                tick_check_oneshot_change
                0x00000000c005c008                exit_pi_state_list
                0x00000000c005c0c4                sys_set_robust_list
                0x00000000c005c10c                sys_get_robust_list
                0x00000000c005c1d0                handle_futex_death
                0x00000000c005c2ac                exit_robust_list
                0x00000000c005c3ac                do_futex
                0x00000000c005cb48                sys_futex
                0x00000000c005cc98                __rt_mutex_init
                0x00000000c005ccc4                rt_mutex_destroy
                0x00000000c005ccf4                rt_mutex_getprio
                0x00000000c005d17c                rt_mutex_timed_lock
                0x00000000c005d1a0                rt_mutex_adjust_pi
                0x00000000c005d214                rt_mutex_init_proxy_locked
                0x00000000c005d23c                rt_mutex_proxy_unlock
                0x00000000c005d264                rt_mutex_next_owner
                0x00000000c005d2a8                smp_call_function_single
                0x00000000c005d2f0                sys_chown16
                0x00000000c005d318                sys_lchown16
                0x00000000c005d340                sys_fchown16
                0x00000000c005d368                sys_setregid16
                0x00000000c005d390                sys_setgid16
                0x00000000c005d3b0                sys_setreuid16
                0x00000000c005d3d8                sys_setuid16
                0x00000000c005d3f8                sys_setresuid16
                0x00000000c005d428                sys_getresuid16
                0x00000000c005d4cc                sys_setresgid16
                0x00000000c005d4fc                sys_getresgid16
                0x00000000c005d5a0                sys_setfsuid16
                0x00000000c005d5c0                sys_setfsgid16
                0x00000000c005d5e0                sys_getgroups16
                0x00000000c005d690                sys_setgroups16
                0x00000000c005d79c                sys_getuid16
                0x00000000c005d7e0                sys_geteuid16
                0x00000000c005d824                sys_getgid16
                0x00000000c005d868                sys_getegid16
                0x00000000c005e040                __module_put_and_exit
                0x00000000c005e054                unregister_module_notifier
                0x00000000c005e074                register_module_notifier
                0x00000000c005e30c                __symbol_get
                0x00000000c005e368                module_add_modinfo_attrs
                0x00000000c005e410                module_remove_modinfo_attrs
                0x00000000c005e470                mod_sysfs_init
                0x00000000c005e544                mod_sysfs_setup
                0x00000000c005e5dc                arch_mod_section_prepend
                0x00000000c005f894                sys_init_module
                0x00000000c005fb3c                module_address_lookup
                0x00000000c005fc14                lookup_module_symbol_name
                0x00000000c005fcd8                lookup_module_symbol_attrs
                0x00000000c005fdc8                module_get_kallsym
                0x00000000c005fedc                module_kallsyms_lookup_name
                0x00000000c005ff74                search_module_extables
                0x00000000c005ffe0                is_module_address
                0x00000000c0060054                __module_text_address
                0x00000000c0060104                module_text_address
                0x00000000c0060118                print_modules
                0x00000000c0060708                kallsyms_lookup_name
                0x00000000c0060780                kallsyms_lookup_size_offset
                0x00000000c00607e4                kallsyms_lookup
                0x00000000c0060870                sprint_symbol
                0x00000000c0060928                __print_symbol
                0x00000000c0060958                lookup_symbol_name
                0x00000000c00609b4                lookup_symbol_attrs
                0x00000000c0060bd0                unregister_pm_notifier
                0x00000000c0060bf0                register_pm_notifier
                0x00000000c0060c10                pm_notifier_call_chain
                0x00000000c0060c44                suspend_set_ops
                0x00000000c0060c7c                suspend_valid_only_mem
                0x00000000c0060c98                arch_suspend_disable_irqs
                0x00000000c0060cac                arch_suspend_enable_irqs
                0x00000000c0060cc0                suspend_devices_and_enter
                0x00000000c0060e2c                pm_suspend
                0x00000000c0060f78                pm_set_vt_switch
                0x00000000c0060fa8                pm_prepare_console
                0x00000000c0061044                pm_restore_console
                0x00000000c0061424                freeze_processes
                0x00000000c00614bc                thaw_processes
                0x00000000c00614f8                wake_lock_active
                0x00000000c0061510                wake_lock_destroy
                0x00000000c0061670                wake_lock_init
                0x00000000c00617b4                get_expired_time
                0x00000000c0062044                wake_unlock
                0x00000000c00624c0                wake_lock_timeout
                0x00000000c00624d8                wake_lock
                0x00000000c00624f4                has_wake_lock
                0x00000000c00629b0                wake_lock_show
                0x00000000c0062a50                wake_lock_store
                0x00000000c0062aec                wake_unlock_show
                0x00000000c0062b8c                wake_unlock_store
                0x00000000c0062cec                unregister_early_suspend
                0x00000000c0062d38                register_early_suspend
                0x00000000c0062ee8                request_suspend_state
                0x00000000c0063078                get_suspend_state
                0x00000000c0064ea8                cgroup_is_removed
                0x00000000c0064ec0                cgroup_lock
                0x00000000c0064edc                cgroup_unlock
                0x00000000c0064ef8                cgroup_path
                0x00000000c00652ac                cgroup_attach_task
                0x00000000c0065748                cgroup_lock_live_group
                0x00000000c00658e0                cgroup_add_file
                0x00000000c00659c4                cgroup_add_files
                0x00000000c00662ec                cgroup_task_count
                0x00000000c006632c                cgroup_iter_start
                0x00000000c0066408                cgroup_iter_next
                0x00000000c00665f0                cgroup_iter_end
                0x00000000c0066600                cgroup_scan_tasks
                0x00000000c00667e8                cgroupstats_build
                0x00000000c00668e8                cgroup_fork
                0x00000000c0066930                cgroup_fork_callbacks
                0x00000000c0066988                cgroup_post_fork
                0x00000000c00669d8                cgroup_exit
                0x00000000c0066a8c                cgroup_clone
                0x00000000c0066d04                cgroup_is_descendant
                0x00000000c0066d8c                __css_put
                0x00000000c006735c                cgroup_frozen
                0x00000000c00673bc                res_counter_init
                0x00000000c00673dc                res_counter_charge_locked
                0x00000000c0067450                res_counter_uncharge_locked
                0x00000000c00674a8                res_counter_charge
                0x00000000c0067528                res_counter_uncharge
                0x00000000c0067568                res_counter_read
                0x00000000c0067628                res_counter_read_u64
                0x00000000c0067688                res_counter_memparse_write_strategy
                0x00000000c00676f0                res_counter_write
                0x00000000c00677f8                handle_bad_irq
                0x00000000c0067c38                irq_to_desc
                0x00000000c0067c60                irq_to_desc_alloc_cpu
                0x00000000c0067c88                no_action
                0x00000000c0067c9c                handle_IRQ_event
                0x00000000c0067d10                early_init_irq_lock_class
                0x00000000c0067d20                disable_irq_nosync
                0x00000000c0067d7c                disable_irq
                0x00000000c0067db0                set_irq_wake
                0x00000000c0067ecc                enable_irq
                0x00000000c0067f54                free_irq
                0x00000000c0068048                can_request_irq
                0x00000000c00680a0                compat_irq_chip_set_default_handler
                0x00000000c00680c8                __irq_set_trigger
                0x00000000c006836c                request_irq
                0x00000000c0068450                setup_irq
                0x00000000c006847c                noirqdebug_setup
                0x00000000c0068630                note_interrupt
                0x00000000c00688a8                check_irq_resend
                0x00000000c00689fc                __set_irq_handler
                0x00000000c0068b38                handle_level_irq
                0x00000000c0068c1c                set_irq_chip_data
                0x00000000c0068c84                set_irq_data
                0x00000000c0068cd8                set_irq_type
                0x00000000c0068d38                dynamic_irq_init
                0x00000000c0068dc8                dynamic_irq_cleanup
                0x00000000c0068e5c                set_irq_msi
                0x00000000c0068eb8                irq_chip_set_defaults
                0x00000000c0068f54                set_irq_chip
                0x00000000c0068fcc                handle_simple_irq
                0x00000000c0069064                handle_fasteoi_irq
                0x00000000c0069138                handle_edge_irq
                0x00000000c0069270                handle_percpu_irq
                0x00000000c00692fc                set_irq_chip_and_handler
                0x00000000c006932c                set_irq_chip_and_handler_name
                0x00000000c00693b4                devm_request_irq
                0x00000000c0069440                devm_free_irq
                0x00000000c00694a8                probe_irq_off
                0x00000000c0069550                probe_irq_mask
                0x00000000c00695f0                probe_irq_on
                0x00000000c00697e8                register_handler_proc
                0x00000000c00698c0                register_irq_proc
                0x00000000c006996c                unregister_handler_proc
                0x00000000c00699a4                init_irq_proc
                0x00000000c0069a20                rcu_batches_completed
                0x00000000c0069a3c                rcu_batches_completed_bh
                0x00000000c0069e74                call_rcu_bh
                0x00000000c0069ea8                call_rcu
                0x00000000c0069edc                rcu_pending
                0x00000000c0069f2c                rcu_needs_cpu
                0x00000000c0069f74                rcu_check_callbacks
                0x00000000c006a1a8                dma_release_from_coherent
                0x00000000c006a210                dma_alloc_from_coherent
                0x00000000c006a2c0                dma_mark_declared_memory_occupied
                0x00000000c006a328                dma_release_declared_memory
                0x00000000c006a364                dma_declare_coherent_memory
 .text          0x00000000c006a450    0x22b94 mm/built-in.o
                0x00000000c006a498                iov_iter_single_seg_count
                0x00000000c006a4d0                generic_write_checks
                0x00000000c006a6c8                pagecache_write_begin
                0x00000000c006a70c                iov_iter_fault_in_readable
                0x00000000c006a790                generic_segment_checks
                0x00000000c006a828                pagecache_write_end
                0x00000000c006a890                iov_iter_copy_from_user
                0x00000000c006a940                iov_iter_copy_from_user_atomic
                0x00000000c006aa38                should_remove_suid
                0x00000000c006aa98                file_remove_suid
                0x00000000c006ab08                generic_file_mmap
                0x00000000c006ab70                generic_file_readonly_mmap
                0x00000000c006ab9c                file_read_actor
                0x00000000c006acbc                find_get_pages_tag
                0x00000000c006ad94                find_get_pages_contig
                0x00000000c006ae68                find_get_page
                0x00000000c006aedc                __lock_page
                0x00000000c006b018                unlock_page
                0x00000000c006b054                find_lock_page
                0x00000000c006b0c8                wait_on_page_bit
                0x00000000c006b170                iov_iter_advance
                0x00000000c006b23c                try_to_release_page
                0x00000000c006b2ac                end_page_writeback
                0x00000000c006b318                add_to_page_cache_locked
                0x00000000c006b404                __remove_from_page_cache
                0x00000000c006b514                remove_from_page_cache
                0x00000000c006b54c                __filemap_fdatawrite_range
                0x00000000c006b5bc                filemap_fdatawrite
                0x00000000c006b5f4                filemap_flush
                0x00000000c006b62c                filemap_fdatawrite_range
                0x00000000c006b658                wait_on_page_writeback_range
                0x00000000c006b778                filemap_fdatawait
                0x00000000c006b7c0                filemap_write_and_wait
                0x00000000c006b804                sync_page_range_nolock
                0x00000000c006b8ac                sync_page_range
                0x00000000c006b978                filemap_write_and_wait_range
                0x00000000c006b9f4                generic_file_buffered_write
                0x00000000c006bcac                generic_file_direct_write
                0x00000000c006c2ec                generic_file_aio_write
                0x00000000c006c3c8                generic_file_aio_write_nolock
                0x00000000c006c474                add_to_page_cache_lru
                0x00000000c006c4f0                grab_cache_page_write_begin
                0x00000000c006c58c                read_cache_page_async
                0x00000000c006c6ec                read_cache_page
                0x00000000c006c740                filemap_fault
                0x00000000c006ca98                grab_cache_page_nowait
                0x00000000c006cb40                find_or_create_page
                0x00000000c006cbcc                __lock_page_killable
                0x00000000c006cc48                generic_file_aio_read
                0x00000000c006d298                __lock_page_nosync
                0x00000000c006d314                find_get_pages
                0x00000000c006d3cc                sys_readahead
                0x00000000c006d48c                mempool_free_pages
                0x00000000c006d4a0                mempool_alloc_pages
                0x00000000c006d4d0                mempool_kfree
                0x00000000c006d4e4                mempool_alloc_slab
                0x00000000c006d504                mempool_kmalloc
                0x00000000c006d524                mempool_kzalloc
                0x00000000c006d544                mempool_free_slab
                0x00000000c006d564                mempool_free
                0x00000000c006d61c                mempool_alloc
                0x00000000c006d6f8                mempool_resize
                0x00000000c006d85c                mempool_create_node
                0x00000000c006d974                mempool_create
                0x00000000c006d998                mempool_destroy
                0x00000000c006d9fc                unregister_oom_notifier
                0x00000000c006da1c                register_oom_notifier
                0x00000000c006dca4                badness
                0x00000000c006df8c                try_set_zone_oom
                0x00000000c006e054                clear_zonelist_oom
                0x00000000c006e0cc                pagefault_out_of_memory
                0x00000000c006e150                out_of_memory
                0x00000000c006e1f0                sys_fadvise64_64
                0x00000000c006e3dc                probe_kernel_write
                0x00000000c006e470                probe_kernel_read
                0x00000000c006e8e8                si_meminfo
                0x00000000c006e9b4                nr_free_buffer_pages
                0x00000000c006ec08                prep_compound_page
                0x00000000c006ec64                split_page
                0x00000000c006eca8                zone_watermark_ok
                0x00000000c006ed50                nr_free_pagecache_pages
                0x00000000c006ed68                show_free_areas
                0x00000000c006f020                build_all_zonelists
                0x00000000c006f0e8                lowmem_reserve_ratio_sysctl_handler
                0x00000000c006f11c                percpu_pagelist_fraction_sysctl_handler
                0x00000000c006f1b4                get_pageblock_flags_group
                0x00000000c006f9f8                free_hot_page
                0x00000000c006fa10                __free_pages
                0x00000000c006fa54                free_pages
                0x00000000c006fa88                free_pages_exact
                0x00000000c006facc                free_cold_page
                0x00000000c006fae4                __pagevec_free
                0x00000000c006fb24                drain_local_pages
                0x00000000c006fb84                drain_all_pages
                0x00000000c006fba4                set_pageblock_flags_group
                0x00000000c006fc90                setup_per_zone_pages_min
                0x00000000c006fe74                min_free_kbytes_sysctl_handler
                0x00000000c0070514                __alloc_pages_internal
                0x00000000c00708c4                __get_free_pages
                0x00000000c0070918                alloc_pages_exact
                0x00000000c00709b4                get_zeroed_page
                0x00000000c0070a00                set_migratetype_isolate
                0x00000000c0070a90                unset_migratetype_isolate
                0x00000000c0070b04                bdi_set_max_ratio
                0x00000000c0070b5c                mapping_tagged
                0x00000000c0070b74                test_set_page_writeback
                0x00000000c0070cc4                bdi_writeout_inc
                0x00000000c0070eac                set_page_dirty
                0x00000000c0070f40                clear_page_dirty_for_io
                0x00000000c0071090                write_one_page
                0x00000000c00711b4                write_cache_pages
                0x00000000c0071568                generic_writepages
                0x00000000c00715a0                set_page_dirty_lock
                0x00000000c0071634                dirty_background_ratio_handler
                0x00000000c0071688                dirty_background_bytes_handler
                0x00000000c00716dc                task_dirty_inc
                0x00000000c007170c                __set_page_dirty_nobuffers
                0x00000000c00718c4                redirty_page_for_writepage
                0x00000000c00718e8                bdi_set_min_ratio
                0x00000000c0071940                determine_dirtyable_memory
                0x00000000c00719b8                dirty_bytes_handler
                0x00000000c0071a50                dirty_ratio_handler
                0x00000000c0071ae8                get_dirty_limits
                0x00000000c0071e00                balance_dirty_pages_ratelimited_nr
                0x00000000c0071ffc                set_page_dirty_balance
                0x00000000c007205c                throttle_vm_writeout
                0x00000000c00720d8                wakeup_pdflush
                0x00000000c007210c                dirty_writeback_centisecs_handler
                0x00000000c0072174                laptop_io_completion
                0x00000000c00721ac                laptop_sync_completion
                0x00000000c00721c8                writeback_set_ratelimit
                0x00000000c0072224                do_writepages
                0x00000000c0072280                __set_page_dirty_no_writeback
                0x00000000c00722b8                test_clear_page_writeback
                0x00000000c00725f0                pdflush_operation
                0x00000000c0072684                default_unplug_io_fn
                0x00000000c0072694                file_ra_state_init
                0x00000000c0072898                read_cache_pages
                0x00000000c0072aa8                page_cache_async_readahead
                0x00000000c0072b4c                page_cache_sync_readahead
                0x00000000c0072b84                force_page_cache_readahead
                0x00000000c0072c34                do_page_cache_readahead
                0x00000000c0072ca4                max_sane_readahead
                0x00000000c0072cd4                pagevec_lookup_tag
                0x00000000c0072d10                pagevec_lookup
                0x00000000c0072d80                put_page
                0x00000000c0072eb8                put_pages_list
                0x00000000c0072f0c                activate_page
                0x00000000c00730b4                mark_page_accessed
                0x00000000c0073134                add_page_to_unevictable_list
                0x00000000c00731e4                lru_add_drain_all
                0x00000000c0073200                release_pages
                0x00000000c00733dc                ____pagevec_lru_add
                0x00000000c0073550                __lru_cache_add
                0x00000000c00735b8                lru_cache_add_lru
                0x00000000c0073704                rotate_reclaimable_page
                0x00000000c00737ac                lru_add_drain
                0x00000000c0073820                __pagevec_release
                0x00000000c007384c                pagevec_strip
                0x00000000c00738cc                pagevec_swap_free
                0x00000000c0073940                invalidate_inode_pages2_range
                0x00000000c0073be0                invalidate_inode_pages2
                0x00000000c0073bfc                cancel_dirty_page
                0x00000000c0073cb8                do_invalidatepage
                0x00000000c0073d6c                truncate_inode_pages_range
                0x00000000c00740cc                truncate_inode_pages
                0x00000000c00740f4                __invalidate_mapping_pages
                0x00000000c0074260                invalidate_mapping_pages
                0x00000000c0074410                unregister_shrinker
                0x00000000c0074464                register_shrinker
                0x00000000c00744b4                shrink_slab
                0x00000000c0074620                remove_mapping
                0x00000000c0074658                __isolate_lru_page
                0x00000000c0074984                isolate_lru_page
                0x00000000c0074ad0                wakeup_kswapd
                0x00000000c0074b44                global_lru_pages
                0x00000000c0074b78                kswapd_run
                0x00000000c0074c1c                page_evictable
                0x00000000c0074fc8                putback_lru_page
                0x00000000c00769b4                try_to_free_pages
                0x00000000c0076ca8                shrink_all_memory
                0x00000000c0076f54                scan_mapping_unevictable_pages
                0x00000000c0077090                scan_unevictable_handler
                0x00000000c0077110                scan_unevictable_register_node
                0x00000000c007712c                scan_unevictable_unregister_node
                0x00000000c0079bc4                shmem_file_setup
                0x00000000c007a058                shmem_unuse
                0x00000000c007a428                shmem_lock
                0x00000000c007a4fc                shmem_set_file
                0x00000000c007a534                shmem_zero_setup
                0x00000000c007a58c                vma_prio_tree_add
                0x00000000c007a650                vma_prio_tree_insert
                0x00000000c007a694                vma_prio_tree_remove
                0x00000000c007a78c                vma_prio_tree_next
                0x00000000c007a818                get_user_pages_fast
                0x00000000c007a894                strndup_user
                0x00000000c007a95c                kzfree
                0x00000000c007a994                __krealloc
                0x00000000c007aa04                krealloc
                0x00000000c007aa4c                kmemdup
                0x00000000c007aa88                kstrndup
                0x00000000c007aadc                kstrdup
                0x00000000c007ab28                arch_pick_mmap_layout
                0x00000000c007ab58                first_online_pgdat
                0x00000000c007ab70                next_online_pgdat
                0x00000000c007ab84                next_zone
                0x00000000c007aba8                next_zones_zonelist
                0x00000000c007b1f4                all_vm_events
                0x00000000c007b3f0                vm_events_fold_cpu
                0x00000000c007b670                congestion_wait
                0x00000000c007b708                set_bdi_congested
                0x00000000c007b730                clear_bdi_congested
                0x00000000c007b784                bdi_init
                0x00000000c007b7cc                bdi_unregister
                0x00000000c007b7f8                bdi_destroy
                0x00000000c007b818                bdi_register
                0x00000000c007b87c                bdi_register_dev
                0x00000000c007b8b8                start_isolate_page_range
                0x00000000c007b960                undo_isolate_page_range
                0x00000000c007b9fc                test_pages_isolated
                0x00000000c007bb30                mminit_verify_zonelist
                0x00000000c007bbf4                sys_remap_file_pages
                0x00000000c007bff0                sys_madvise
                0x00000000c007c850                pgd_clear_bad
                0x00000000c007c878                pud_clear_bad
                0x00000000c007c888                pmd_clear_bad
                0x00000000c007c8c0                free_pgd_range
                0x00000000c007ca3c                free_pgtables
                0x00000000c007caec                __pte_alloc
                0x00000000c007cc28                remap_pfn_range
                0x00000000c007ce00                __pte_alloc_kernel
                0x00000000c007ce84                apply_to_page_range
                0x00000000c007d024                vm_normal_page
                0x00000000c007d6c4                copy_page_range
                0x00000000c007da50                unmap_vmas
                0x00000000c007dfd4                zap_page_range
                0x00000000c007e14c                unmap_mapping_range
                0x00000000c007e3b0                vmtruncate
                0x00000000c007e4f0                zap_vma_ptes
                0x00000000c007e548                follow_page
                0x00000000c007e694                get_locked_pte
                0x00000000c007e7e4                vm_insert_page
                0x00000000c007e8c8                vm_insert_mixed
                0x00000000c007e954                vm_insert_pfn
                0x00000000c007ea0c                vmtruncate_range
                0x00000000c007eadc                handle_mm_fault
                0x00000000c007f080                __get_user_pages
                0x00000000c007f340                get_user_pages
                0x00000000c007f388                __pmd_alloc
                0x00000000c007f3a4                make_pages_present
                0x00000000c007f470                get_gate_vma
                0x00000000c007f484                in_gate_area_no_task
                0x00000000c007f498                access_process_vm
                0x00000000c007f5e4                print_vma_addr
                0x00000000c007f71c                sys_mincore
                0x00000000c007fa14                can_do_mlock
                0x00000000c007fa5c                __clear_page_mlock
                0x00000000c007fb08                mlock_vma_page
                0x00000000c0080140                mlock_vma_pages_range
                0x00000000c00801e0                munlock_vma_pages_range
                0x00000000c0080204                sys_mlock
                0x00000000c00802d0                sys_munlock
                0x00000000c0080344                sys_mlockall
                0x00000000c0080400                sys_munlockall
                0x00000000c008044c                user_shm_lock
                0x00000000c00804d0                user_shm_unlock
                0x00000000c00804fc                alloc_locked_buffer
                0x00000000c00805d0                release_locked_buffer
                0x00000000c0080640                free_locked_buffer
                0x00000000c0080660                vm_get_page_prot
                0x00000000c0080838                find_vma
                0x00000000c0080954                get_unmapped_area
                0x00000000c0080c74                arch_unmap_area
                0x00000000c0080ca0                __vm_enough_memory
                0x00000000c0080ddc                unlink_file_vma
                0x00000000c0080e00                __vma_link_rb
                0x00000000c0080ec4                vma_adjust
                0x00000000c0081244                vma_merge
                0x00000000c008141c                vm_stat_account
                0x00000000c0081478                vma_wants_writenotify
                0x00000000c0081520                arch_get_unmapped_area_topdown
                0x00000000c00816a4                arch_unmap_area_topdown
                0x00000000c00816d0                find_vma_prev
                0x00000000c008173c                find_mergeable_anon_vma
                0x00000000c0081848                split_vma
                0x00000000c0081980                do_munmap
                0x00000000c0081bf0                sys_munmap
                0x00000000c0081c48                exit_mmap
                0x00000000c0081d8c                insert_vm_struct
                0x00000000c0081e84                copy_vma
                0x00000000c0081ffc                may_expand_vm
                0x00000000c0082038                do_brk
                0x00000000c00822e8                sys_brk
                0x00000000c008256c                expand_stack
                0x00000000c0082580                find_extend_vma
                0x00000000c0082600                expand_stack_downwards
                0x00000000c0082614                mmap_region
                0x00000000c0082a00                do_mmap_pgoff
                0x00000000c0082d24                install_special_mapping
                0x00000000c0082dd8                mm_drop_all_locks
                0x00000000c0082ec4                mm_take_all_locks
                0x00000000c0082ff0                mprotect_fixup
                0x00000000c0083390                sys_mprotect
                0x00000000c008355c                move_page_tables
                0x00000000c008377c                do_mremap
                0x00000000c0083d90                sys_mremap
                0x00000000c0083e08                sys_msync
                0x00000000c008406c                anon_vma_prepare
                0x00000000c0084114                __anon_vma_merge
                0x00000000c008416c                __anon_vma_link
                0x00000000c00841a0                anon_vma_link
                0x00000000c00841d4                anon_vma_unlink
                0x00000000c0084234                page_address_in_vma
                0x00000000c00842bc                page_check_address
                0x00000000c00843bc                page_mkclean
                0x00000000c0084774                page_referenced
                0x00000000c00848a4                page_add_anon_rmap
                0x00000000c00848d8                page_add_new_anon_rmap
                0x00000000c008494c                page_add_file_rmap
                0x00000000c00849c8                page_remove_rmap
                0x00000000c0085308                try_to_unmap
                0x00000000c008536c                try_to_munlock
                0x00000000c008539c                vmalloc_to_page
                0x00000000c0085404                vmalloc_to_pfn
                0x00000000c008570c                remap_vmalloc_range
                0x00000000c0085a90                map_vm_area
                0x00000000c0085e08                vm_unmap_aliases
                0x00000000c0085f80                vm_unmap_ram
                0x00000000c0086590                __get_vm_area
                0x00000000c00865b4                vm_map_ram
                0x00000000c00868a8                unmap_kernel_range
                0x00000000c00868fc                __get_vm_area_caller
                0x00000000c0086928                get_vm_area
                0x00000000c0086968                get_vm_area_caller
                0x00000000c00869ac                get_vm_area_node
                0x00000000c00869e8                remove_vm_area
                0x00000000c0086a7c                free_vm_area
                0x00000000c0086b60                vunmap
                0x00000000c0086bd4                vmap
                0x00000000c0086c44                vfree
                0x00000000c0086e78                vmalloc_32_user
                0x00000000c0086ec8                vmalloc_32
                0x00000000c0086efc                vmalloc_node
                0x00000000c0086f30                vmalloc_user
                0x00000000c0086f80                vmalloc
                0x00000000c0086fb4                __vmalloc
                0x00000000c0086fd8                __vmalloc_area
                0x00000000c0086ffc                vmalloc_exec
                0x00000000c0087034                vread
                0x00000000c00870e8                vwrite
                0x00000000c008718c                vmalloc_sync_all
                0x00000000c008719c                alloc_vm_area
                0x00000000c0087208                walk_page_range
                0x00000000c0087564                end_swap_bio_read
                0x00000000c008761c                swap_writepage
                0x00000000c00876cc                swap_readpage
                0x00000000c0087730                show_swap_cache_info
                0x00000000c00877b8                add_to_swap_cache
                0x00000000c00878ec                __delete_from_swap_cache
                0x00000000c00879a0                add_to_swap
                0x00000000c0087a24                delete_from_swap_cache
                0x00000000c0087a58                free_page_and_swap_cache
                0x00000000c0087ab8                free_pages_and_swap_cache
                0x00000000c0087b68                lookup_swap_cache
                0x00000000c0087bac                read_swap_cache_async
                0x00000000c0087cc0                swapin_readahead
                0x00000000c0088188                sys_swapon
                0x00000000c0088b2c                swap_unplug_io_fn
                0x00000000c0088bd0                get_swap_page
                0x00000000c0089060                get_swap_page_of_type
                0x00000000c0089418                swap_free
                0x00000000c00896e4                reuse_swap_page
                0x00000000c008977c                try_to_free_swap
                0x00000000c008980c                free_swap_and_cache
                0x00000000c00898f0                map_swap_page
                0x00000000c008995c                sys_swapoff
                0x00000000c008a328                si_swapinfo
                0x00000000c008a398                swap_duplicate
                0x00000000c008a460                get_swap_info_struct
                0x00000000c008a480                valid_swaphandles
                0x00000000c008a574                grab_swap_token
                0x00000000c008a67c                __put_swap_token
                0x00000000c008a6c4                dma_pool_free
                0x00000000c008a8b4                dma_pool_destroy
                0x00000000c008a9f0                dma_pool_create
                0x00000000c008ab58                dmam_pool_create
                0x00000000c008abe8                dmam_pool_destroy
                0x00000000c008ac3c                dma_pool_alloc
                0x00000000c008b894                kmem_cache_size
                0x00000000c008b8a8                kmem_cache_name
                0x00000000c008bd04                kmem_cache_free
                0x00000000c008bfd0                kfree
                0x00000000c008c0c0                ksize
                0x00000000c008c3a8                kmem_cache_destroy
                0x00000000c008c49c                kmem_cache_shrink
                0x00000000c008c508                __kmalloc
                0x00000000c008c5dc                kmem_cache_alloc
                0x00000000c008c960                slabinfo_write
                0x00000000c008cad0                kmem_cache_create
                0x00000000c008cf10                slab_is_available
                0x00000000c008cf38                kmem_ptr_validate
 .text          0x00000000c008cfe4    0x84d40 fs/built-in.o
                0x00000000c008cfe4                put_unused_fd
                0x00000000c008d034                generic_file_open
                0x00000000c008d06c                nonseekable_open
                0x00000000c008d118                vfs_statfs
                0x00000000c008d38c                filp_close
                0x00000000c008d404                sys_close
                0x00000000c008d4cc                fd_install
                0x00000000c008d73c                lookup_instantiate_filp
                0x00000000c008d7f4                dentry_open
                0x00000000c008d880                sys_statfs
                0x00000000c008d91c                sys_statfs64
                0x00000000c008d9c8                sys_fstatfs
                0x00000000c008da54                sys_fstatfs64
                0x00000000c008daf0                do_truncate
                0x00000000c008de74                sys_truncate
                0x00000000c008de90                sys_ftruncate
                0x00000000c008debc                sys_truncate64
                0x00000000c008ded0                sys_ftruncate64
                0x00000000c008def4                sys_fallocate
                0x00000000c008e008                sys_faccessat
                0x00000000c008e1a0                sys_access
                0x00000000c008e1c4                sys_chdir
                0x00000000c008e238                sys_fchdir
                0x00000000c008e2ac                sys_chroot
                0x00000000c008e334                sys_fchmod
                0x00000000c008e3d8                sys_fchmodat
                0x00000000c008e480                sys_chmod
                0x00000000c008e4a4                sys_chown
                0x00000000c008e51c                sys_fchownat
                0x00000000c008e5a0                sys_lchown
                0x00000000c008e618                sys_fchown
                0x00000000c008e678                nameidata_to_filp
                0x00000000c008e6cc                do_sys_open
                0x00000000c008e7b4                sys_open
                0x00000000c008e7e0                sys_openat
                0x00000000c008e7f4                sys_creat
                0x00000000c008e810                sys_vhangup
                0x00000000c008e840                generic_file_llseek_unlocked
                0x00000000c008e8e8                no_llseek
                0x00000000c008e900                default_llseek
                0x00000000c008e9a4                vfs_llseek
                0x00000000c008ea00                iov_shorten
                0x00000000c008eab0                do_sync_write
                0x00000000c008ebac                do_sync_read
                0x00000000c008eca8                generic_file_llseek
                0x00000000c008ed14                sys_lseek
                0x00000000c008ed9c                sys_llseek
                0x00000000c008ee68                rw_verify_area
                0x00000000c008f110                vfs_write
                0x00000000c008f248                vfs_read
                0x00000000c008f37c                sys_read
                0x00000000c008f3ec                sys_write
                0x00000000c008f45c                sys_pread64
                0x00000000c008f4e0                sys_pwrite64
                0x00000000c008f564                do_sync_readv_writev
                0x00000000c008f658                do_loop_readv_writev
                0x00000000c008f6cc                rw_copy_check_uvector
                0x00000000c008f980                vfs_writev
                0x00000000c008f9f8                vfs_readv
                0x00000000c008fa70                sys_readv
                0x00000000c008fae0                sys_writev
                0x00000000c008fb50                sys_sendfile
                0x00000000c008fbe0                sys_sendfile64
                0x00000000c008fd1c                get_max_files
                0x00000000c008fd38                fget
                0x00000000c008fdc4                drop_file_write_access
                0x00000000c008fe24                get_empty_filp
                0x00000000c008ff48                init_file
                0x00000000c0090000                alloc_file
                0x00000000c009004c                proc_nr_files
                0x00000000c0090090                fget_light
                0x00000000c0090158                file_move
                0x00000000c0090190                file_kill
                0x00000000c00901bc                put_filp
                0x00000000c0090224                __fput
                0x00000000c00903ac                fput
                0x00000000c00903e0                fs_may_remount_ro
                0x00000000c00904a4                set_anon_super
                0x00000000c0090528                lock_super
                0x00000000c0090568                unlock_super
                0x00000000c00905a8                drop_super
                0x00000000c00905f0                sget
                0x00000000c0090910                deactivate_super
                0x00000000c0090994                get_sb_nodev
                0x00000000c0090a20                get_sb_bdev
                0x00000000c0090b88                vfs_kern_mount
                0x00000000c0090c3c                kern_mount_data
                0x00000000c0090c5c                do_kern_mount
                0x00000000c0090d3c                __put_super_and_need_restart
                0x00000000c0090db8                get_super
                0x00000000c0090e48                __fsync_super
                0x00000000c0090ec8                fsync_super
                0x00000000c0090ee8                generic_shutdown_super
                0x00000000c0090fdc                kill_block_super
                0x00000000c0091014                kill_anon_super
                0x00000000c0091044                kill_litter_super
                0x00000000c0091070                sync_supers
                0x00000000c0091120                sync_filesystems
                0x00000000c0091234                user_get_super
                0x00000000c00912bc                sys_ustat
                0x00000000c009138c                do_remount_sb
                0x00000000c0091528                get_sb_single
                0x00000000c0091668                emergency_remount
                0x00000000c0091730                cdev_init
                0x00000000c00917b0                cdev_alloc
                0x00000000c00917f8                cdev_del
                0x00000000c009182c                cdev_add
                0x00000000c009190c                unregister_chrdev
                0x00000000c0091948                unregister_chrdev_region
                0x00000000c0091b10                register_chrdev
                0x00000000c0091bf0                alloc_chrdev_region
                0x00000000c0091c20                register_chrdev_region
                0x00000000c0091d08                chrdev_show
                0x00000000c0091d74                cdev_put
                0x00000000c0091ec4                cd_forget
                0x00000000c0091ef8                generic_fillattr
                0x00000000c0091fa4                vfs_getattr
                0x00000000c0091fe0                inode_sub_bytes
                0x00000000c009204c                inode_get_bytes
                0x00000000c0092080                inode_set_bytes
                0x00000000c0092388                vfs_fstat
                0x00000000c00923cc                inode_add_bytes
                0x00000000c0092420                vfs_stat_fd
                0x00000000c0092470                vfs_stat
                0x00000000c0092494                vfs_lstat_fd
                0x00000000c00924e4                vfs_lstat
                0x00000000c0092508                sys_newstat
                0x00000000c009254c                sys_newlstat
                0x00000000c0092590                sys_newfstat
                0x00000000c00925c8                sys_readlinkat
                0x00000000c0092650                sys_readlink
                0x00000000c009267c                sys_stat64
                0x00000000c00926b4                sys_lstat64
                0x00000000c00926ec                sys_fstat64
                0x00000000c0092724                sys_fstatat64
                0x00000000c0092778                register_binfmt
                0x00000000c00927ac                unregister_binfmt
                0x00000000c00927dc                set_binfmt
                0x00000000c0092b54                copy_strings_kernel
                0x00000000c0092bc8                search_binary_handler
                0x00000000c0092dfc                install_exec_creds
                0x00000000c0092e20                kernel_read
                0x00000000c0092eb0                prepare_binprm
                0x00000000c0092fbc                open_exec
                0x00000000c00930c4                setup_arg_pages
                0x00000000c0093344                remove_arg_zero
                0x00000000c0093480                sys_uselib
                0x00000000c0093614                bprm_mm_init
                0x00000000c009375c                get_task_comm
                0x00000000c0093780                set_task_comm
                0x00000000c00937a8                check_unsafe_exec
                0x00000000c0093890                free_bprm
                0x00000000c00938bc                do_execve
                0x00000000c0093af4                set_dumpable
                0x00000000c0093b8c                flush_old_exec
                0x00000000c0094174                get_dumpable
                0x00000000c0094194                do_coredump
                0x00000000c009497c                generic_pipe_buf_confirm
                0x00000000c0094b58                generic_pipe_buf_get
                0x00000000c0094f74                generic_pipe_buf_steal
                0x00000000c0094fd8                generic_pipe_buf_map
                0x00000000c0095050                generic_pipe_buf_unmap
                0x00000000c009508c                pipe_wait
                0x00000000c00959b8                alloc_pipe_info
                0x00000000c0095a00                __free_pipe_info
                0x00000000c0095a64                free_pipe_info
                0x00000000c0095b84                create_write_pipe
                0x00000000c0095d20                free_write_pipe
                0x00000000c0095d50                create_read_pipe
                0x00000000c0095dd0                do_pipe_flags
                0x00000000c0095e98                do_pipe
                0x00000000c0095eb0                sys_pipe2
                0x00000000c0095f30                sys_pipe
                0x00000000c0095f48                get_write_access
                0x00000000c0095f88                __page_symlink
                0x00000000c00960a0                page_symlink
                0x00000000c00960c8                page_put_link
                0x00000000c009615c                page_follow_link_light
                0x00000000c0096198                generic_permission
                0x00000000c00962c0                inode_permission
                0x00000000c009633c                file_permission
                0x00000000c009639c                follow_up
                0x00000000c0096454                path_put
                0x00000000c00965d8                unlock_rename
                0x00000000c0096744                lookup_one_len
                0x00000000c0096974                vfs_readlink
                0x00000000c00969f0                page_readlink
                0x00000000c0096a50                generic_readlink
                0x00000000c0096aec                vfs_link
                0x00000000c0096c20                getname
                0x00000000c0096cf8                path_get
                0x00000000c0097a50                vfs_path_lookup
                0x00000000c0097a98                vfs_follow_link
                0x00000000c0097d40                kern_path
                0x00000000c0097d8c                path_lookup
                0x00000000c0097db8                vfs_create
                0x00000000c0097e80                vfs_mkdir
                0x00000000c0097f40                vfs_symlink
                0x00000000c0097ff8                vfs_mknod
                0x00000000c009820c                follow_down
                0x00000000c00982e4                lookup_create
                0x00000000c0098384                user_path_at
                0x00000000c0098418                vfs_unlink
                0x00000000c0098620                dentry_unhash
                0x00000000c00986b0                vfs_rename
                0x00000000c0098a28                vfs_rmdir
                0x00000000c0098bc4                lock_rename
                0x00000000c0098c58                deny_write_access
                0x00000000c0098ca0                release_open_intent
                0x00000000c0098ccc                path_lookup_open
                0x00000000c0098d60                lookup_one_noperm
                0x00000000c0098dec                may_open
                0x00000000c0098f9c                do_filp_open
                0x00000000c0099684                filp_open
                0x00000000c00996b0                sys_mknodat
                0x00000000c0099888                sys_mknod
                0x00000000c00998b4                sys_mkdirat
                0x00000000c009999c                sys_mkdir
                0x00000000c00999c0                sys_rmdir
                0x00000000c00999dc                sys_unlinkat
                0x00000000c0099a10                sys_unlink
                0x00000000c0099a2c                sys_symlinkat
                0x00000000c0099b10                sys_symlink
                0x00000000c0099b2c                sys_linkat
                0x00000000c0099c2c                sys_link
                0x00000000c0099c64                sys_renameat
                0x00000000c0099e38                sys_rename
                0x00000000c0099e60                fasync_helper
                0x00000000c0099f3c                __f_setown
                0x00000000c0099fc8                f_setown
                0x00000000c009a008                set_close_on_exec
                0x00000000c009a054                sys_dup3
                0x00000000c009a194                sys_dup2
                0x00000000c009a1f8                sys_dup
                0x00000000c009a23c                f_delown
                0x00000000c009a274                f_getown
                0x00000000c009a5b8                sys_fcntl
                0x00000000c009a608                sys_fcntl64
                0x00000000c009a694                send_sigio
                0x00000000c009a7c8                __kill_fasync
                0x00000000c009a83c                kill_fasync
                0x00000000c009a85c                send_sigurg
                0x00000000c009a914                fiemap_check_flags
                0x00000000c009a93c                fiemap_fill_next_extent
                0x00000000c009aaa8                __generic_block_fiemap
                0x00000000c009acf8                generic_block_fiemap
                0x00000000c009ad60                do_vfs_ioctl
                0x00000000c009b23c                sys_ioctl
                0x00000000c009b534                vfs_readdir
                0x00000000c009b5dc                sys_getdents
                0x00000000c009b694                sys_getdents64
                0x00000000c009b754                poll_initwait
                0x00000000c009b794                poll_schedule_timeout
                0x00000000c009b7e8                poll_freewait
                0x00000000c009baa4                poll_select_set_timeout
                0x00000000c009bb20                do_select
                0x00000000c009bf60                core_sys_select
                0x00000000c009c268                sys_select
                0x00000000c009c450                do_sys_poll
                0x00000000c009c82c                sys_poll
                0x00000000c009cc40                d_rehash
                0x00000000c009cc54                d_genocide
                0x00000000c009cd48                dget_locked
                0x00000000c009ce3c                d_find_alias
                0x00000000c009d404                shrink_dcache_parent
                0x00000000c009d51c                shrink_dcache_sb
                0x00000000c009d538                dput
                0x00000000c009d698                d_prune_aliases
                0x00000000c009dc84                d_move
                0x00000000c009dd64                d_delete
                0x00000000c009de08                d_alloc
                0x00000000c009df8c                d_obtain_alias
                0x00000000c009e068                have_submounts
                0x00000000c009e0f0                d_instantiate
                0x00000000c009e124                d_alloc_root
                0x00000000c009e170                d_invalidate
                0x00000000c009e210                d_splice_alias
                0x00000000c009e2bc                d_instantiate_unique
                0x00000000c009e31c                d_validate
                0x00000000c009e3d8                shrink_dcache_for_umount
                0x00000000c009e440                d_alloc_name
                0x00000000c009e4b0                __d_lookup
                0x00000000c009e5c0                d_lookup
                0x00000000c009e610                d_hash_and_lookup
                0x00000000c009e6a0                find_inode_number
                0x00000000c009e6d4                d_add_ci
                0x00000000c009e808                d_ancestor
                0x00000000c009e840                d_materialise_unique
                0x00000000c009eae4                __d_path
                0x00000000c009ec64                d_path
                0x00000000c009ed0c                dynamic_dname
                0x00000000c009ed7c                dentry_path
                0x00000000c009ee78                sys_getcwd
                0x00000000c009efc0                is_subdir
                0x00000000c009f060                inode_add_to_lists
                0x00000000c009f0f4                __insert_inode_hash
                0x00000000c009f138                remove_inode_hash
                0x00000000c009f170                bmap
                0x00000000c009f1a0                inode_double_unlock
                0x00000000c009f1d8                unlock_new_inode
                0x00000000c009f228                inode_wait
                0x00000000c009f240                file_update_time
                0x00000000c009f344                touch_atime
                0x00000000c009f5f0                iunique
                0x00000000c009f65c                clear_inode
                0x00000000c009f744                inode_init_once
                0x00000000c009f7f4                inode_init_always
                0x00000000c009f974                new_inode
                0x00000000c009f9fc                inode_needs_sync
                0x00000000c009fa5c                init_special_inode
                0x00000000c009fad4                inode_double_lock
                0x00000000c009fb40                iput
                0x00000000c009fbbc                destroy_inode
                0x00000000c009fd00                invalidate_inodes
                0x00000000c009fdfc                generic_delete_inode
                0x00000000c009ff1c                generic_drop_inode
                0x00000000c00a00f8                __iget
                0x00000000c00a03bc                insert_inode_locked4
                0x00000000c00a0494                insert_inode_locked
                0x00000000c00a05a4                ilookup
                0x00000000c00a05dc                iget_locked
                0x00000000c00a0768                ilookup5
                0x00000000c00a07b8                ilookup5_nowait
                0x00000000c00a0808                iget5_locked
                0x00000000c00a0964                igrab
                0x00000000c00a0990                inode_change_ok
                0x00000000c00a0b24                inode_setattr
                0x00000000c00a0c5c                notify_change
                0x00000000c00a123c                is_bad_inode
                0x00000000c00a1264                make_bad_inode
                0x00000000c00a12cc                iget_failed
                0x00000000c00a145c                free_fdtable_rcu
                0x00000000c00a14e8                expand_files
                0x00000000c00a16dc                dup_fd
                0x00000000c00a19ac                alloc_fd
                0x00000000c00a1aa0                get_unused_fd
                0x00000000c00a1abc                unregister_filesystem
                0x00000000c00a1c04                get_fs_type
                0x00000000c00a1cd0                register_filesystem
                0x00000000c00a1d50                get_filesystem
                0x00000000c00a1d60                put_filesystem
                0x00000000c00a1d70                sys_sysfs
                0x00000000c00a1ec8                get_filesystem_list
                0x00000000c00a2054                mnt_pin
                0x00000000c00a2070                may_umount_tree
                0x00000000c00a20b8                generic_show_options
                0x00000000c00a22c0                may_umount
                0x00000000c00a22e0                save_mount_options
                0x00000000c00a2310                __mnt_is_readonly
                0x00000000c00a2338                mnt_want_write
                0x00000000c00a23b8                simple_set_mnt
                0x00000000c00a2410                mnt_unpin
                0x00000000c00a2988                mnt_drop_write
                0x00000000c00a2a78                mnt_release_group_id
                0x00000000c00a2bb0                alloc_vfsmnt
                0x00000000c00a2ce4                free_vfsmnt
                0x00000000c00a2d20                mntput_no_expire
                0x00000000c00a2fcc                __lookup_mnt
                0x00000000c00a3038                lookup_mnt
                0x00000000c00a3070                mnt_set_mountpoint
                0x00000000c00a3384                do_add_mount
                0x00000000c00a34ac                release_mounts
                0x00000000c00a352c                umount_tree
                0x00000000c00a3670                mark_mounts_for_expiry
                0x00000000c00a3780                sys_umount
                0x00000000c00a3a5c                copy_tree
                0x00000000c00a3c00                collect_mounts
                0x00000000c00a3c48                drop_collected_mounts
                0x00000000c00a3ca0                copy_mount_options
                0x00000000c00a3d8c                do_mount
                0x00000000c00a43ec                sys_mount
                0x00000000c00a44c0                set_fs_root
                0x00000000c00a4510                set_fs_pwd
                0x00000000c00a4560                sys_pivot_root
                0x00000000c00a48a4                __put_mnt_ns
                0x00000000c00a4910                copy_mnt_ns
                0x00000000c00a4b54                seq_putc
                0x00000000c00a4b88                seq_list_start
                0x00000000c00a4bd8                seq_list_next
                0x00000000c00a4c0c                seq_puts
                0x00000000c00a4c74                seq_release
                0x00000000c00a4c9c                seq_release_private
                0x00000000c00a4cd4                single_release
                0x00000000c00a4d00                seq_bitmap_list
                0x00000000c00a4d68                seq_bitmap
                0x00000000c00a4fd0                mangle_path
                0x00000000c00a5060                seq_path
                0x00000000c00a50e8                seq_escape
                0x00000000c00a51a4                seq_printf
                0x00000000c00a5218                seq_lseek
                0x00000000c00a5318                seq_read
                0x00000000c00a5748                seq_open
                0x00000000c00a57d8                __seq_open_private
                0x00000000c00a5830                seq_open_private
                0x00000000c00a5850                single_open
                0x00000000c00a58dc                seq_list_start_head
                0x00000000c00a591c                seq_path_root
                0x00000000c00a59a4                seq_dentry
                0x00000000c00a5a2c                xattr_getsecurity
                0x00000000c00a5a40                vfs_listxattr
                0x00000000c00a5aec                generic_getxattr
                0x00000000c00a5b4c                generic_listxattr
                0x00000000c00a5c10                generic_setxattr
                0x00000000c00a5c80                generic_removexattr
                0x00000000c00a5ed8                vfs_removexattr
                0x00000000c00a6028                vfs_setxattr
                0x00000000c00a6250                vfs_getxattr
                0x00000000c00a63dc                sys_setxattr
                0x00000000c00a6464                sys_lsetxattr
                0x00000000c00a64ec                sys_fsetxattr
                0x00000000c00a6568                sys_getxattr
                0x00000000c00a65d0                sys_lgetxattr
                0x00000000c00a6638                sys_fgetxattr
                0x00000000c00a6688                sys_listxattr
                0x00000000c00a66e8                sys_llistxattr
                0x00000000c00a6748                sys_flistxattr
                0x00000000c00a6790                sys_removexattr
                0x00000000c00a6800                sys_lremovexattr
                0x00000000c00a6870                sys_fremovexattr
                0x00000000c00a68cc                simple_statfs
                0x00000000c00a6910                simple_sync_file
                0x00000000c00a6924                dcache_readdir
                0x00000000c00a6b08                generic_read_dir
                0x00000000c00a6b1c                simple_empty
                0x00000000c00a6b7c                generic_fh_to_parent
                0x00000000c00a6bd4                generic_fh_to_dentry
                0x00000000c00a6c20                simple_attr_write
                0x00000000c00a6d0c                simple_attr_release
                0x00000000c00a6d28                simple_attr_open
                0x00000000c00a6da8                simple_transaction_release
                0x00000000c00a6dc8                memory_read_from_buffer
                0x00000000c00a6e50                simple_read_from_buffer
                0x00000000c00a6f0c                simple_transaction_read
                0x00000000c00a6f50                simple_attr_read
                0x00000000c00a700c                simple_release_fs
                0x00000000c00a704c                simple_pin_fs
                0x00000000c00a70e0                simple_unlink
                0x00000000c00a7144                simple_rename
                0x00000000c00a721c                simple_rmdir
                0x00000000c00a7278                dcache_dir_close
                0x00000000c00a7294                simple_fill_super
                0x00000000c00a742c                simple_readpage
                0x00000000c00a74b4                simple_write_end
                0x00000000c00a75b4                simple_link
                0x00000000c00a766c                dcache_dir_open
                0x00000000c00a76a0                get_sb_pseudo
                0x00000000c00a77f4                dcache_dir_lseek
                0x00000000c00a793c                simple_getattr
                0x00000000c00a7978                simple_lookup
                0x00000000c00a79c4                simple_transaction_get
                0x00000000c00a7a84                simple_prepare_write
                0x00000000c00a7b50                simple_write_begin
                0x00000000c00a7f18                sync_inode
                0x00000000c00a7f2c                generic_sync_sb_inodes
                0x00000000c00a8268                __mark_inode_dirty
                0x00000000c00a83e8                sb_has_dirty_inodes
                0x00000000c00a8434                write_inode_now
                0x00000000c00a84dc                generic_osync_inode
                0x00000000c00a859c                writeback_in_progress
                0x00000000c00a85b4                writeback_inodes
                0x00000000c00a8658                sync_inodes_sb
                0x00000000c00a8768                sync_inodes
                0x00000000c00a8804                get_dominating_id
                0x00000000c00a88b4                change_mnt_propagation
                0x00000000c00a8a84                propagate_mnt
                0x00000000c00a8c20                propagate_mount_busy
                0x00000000c00a8ce8                propagate_umount
                0x00000000c00a8da0                drop_caches_sysctl_handler
                0x00000000c00a9278                splice_direct_to_actor
                0x00000000c00a9590                __splice_from_pipe
                0x00000000c00a97c4                generic_file_splice_write
                0x00000000c00a98e8                generic_file_splice_write_nolock
                0x00000000c00a9b8c                splice_to_pipe
                0x00000000c00aa464                generic_file_splice_read
                0x00000000c00aa4e0                splice_from_pipe
                0x00000000c00aa568                generic_splice_sendpage
                0x00000000c00aa598                do_splice_direct
                0x00000000c00aa60c                sys_vmsplice
                0x00000000c00aa7d0                sys_splice
                0x00000000c00aaa74                sys_tee
                0x00000000c00aae50                do_sync_mapping_range
                0x00000000c00aaef4                vfs_fsync
                0x00000000c00ab000                sys_sync
                0x00000000c00ab01c                emergency_sync
                0x00000000c00ab03c                file_fsync
                0x00000000c00ab0a8                sys_fsync
                0x00000000c00ab0e4                sys_fdatasync
                0x00000000c00ab120                sys_sync_file_range
                0x00000000c00ab258                sys_sync_file_range2
                0x00000000c00ab3e0                do_utimes
                0x00000000c00ab4d0                sys_utimensat
                0x00000000c00ab584                sys_futimesat
                0x00000000c00ab66c                sys_utimes
                0x00000000c00ab690                fsstack_copy_inode_size
                0x00000000c00ab6b0                fsstack_copy_attr_all
                0x00000000c00ab744                init_buffer
                0x00000000c00ab75c                mark_buffer_async_write
                0x00000000c00ab790                generic_block_bmap
                0x00000000c00ab800                block_sync_page
                0x00000000c00ab90c                block_is_partially_uptodate
                0x00000000c00aba70                invalidate_inode_buffers
                0x00000000c00abb94                submit_bh
                0x00000000c00abd8c                generic_cont_expand_simple
                0x00000000c00ac160                mark_buffer_dirty
                0x00000000c00ac344                block_commit_write
                0x00000000c00ac378                __set_page_dirty_buffers
                0x00000000c00ac460                sync_blockdev
                0x00000000c00ac484                fsync_bdev
                0x00000000c00ac4c8                __wait_on_buffer
                0x00000000c00ac54c                unlock_buffer
                0x00000000c00ac5b0                end_buffer_read_sync
                0x00000000c00ac8d8                end_buffer_write_sync
                0x00000000c00ac9a8                __lock_buffer
                0x00000000c00ac9ec                ll_rw_block
                0x00000000c00acb40                set_bh_page
                0x00000000c00acc34                free_buffer_head
                0x00000000c00accb4                try_to_free_buffers
                0x00000000c00acd60                alloc_buffer_head
                0x00000000c00acdd4                alloc_page_buffers
                0x00000000c00acea8                create_empty_buffers
                0x00000000c00acfa8                block_truncate_page
                0x00000000c00ad204                nobh_truncate_page
                0x00000000c00ad430                block_read_full_page
                0x00000000c00ad784                __brelse
                0x00000000c00ad7d4                invalidate_bh_lrus
                0x00000000c00ad818                invalidate_bdev
                0x00000000c00ad850                __find_get_block
                0x00000000c00ada20                __getblk
                0x00000000c00adc38                __bforget
                0x00000000c00adc94                unmap_underlying_metadata
                0x00000000c00ae11c                block_write_full_page
                0x00000000c00ae208                nobh_writepage
                0x00000000c00ae2e8                __breadahead
                0x00000000c00ae330                __bread
                0x00000000c00ae3fc                page_zero_new_buffers
                0x00000000c00ae570                block_write_end
                0x00000000c00ae5dc                generic_write_end
                0x00000000c00ae670                nobh_write_end
                0x00000000c00aebd0                block_write_begin
                0x00000000c00aecf0                cont_write_begin
                0x00000000c00af068                nobh_write_begin
                0x00000000c00af4f4                mark_buffer_dirty_inode
                0x00000000c00af57c                thaw_bdev
                0x00000000c00af694                freeze_bdev
                0x00000000c00af78c                bh_submit_read
                0x00000000c00af834                bh_uptodate_or_lock
                0x00000000c00af898                sync_dirty_buffer
                0x00000000c00af9bc                block_prepare_write
                0x00000000c00afa1c                block_page_mkwrite
                0x00000000c00afafc                sync_mapping_buffers
                0x00000000c00afd14                block_invalidatepage
                0x00000000c00afe78                inode_has_buffers
                0x00000000c00afe98                write_boundary_block
                0x00000000c00afefc                remove_inode_buffers
                0x00000000c00aff50                sys_bdflush
                0x00000000c00affd0                bio_phys_segments
                0x00000000c00afff8                bio_get_nr_vecs
                0x00000000c00b0040                bio_endio
                0x00000000c00b0094                bio_sector_offset
                0x00000000c00b0180                bioset_free
                0x00000000c00b025c                bioset_create
                0x00000000c00b0474                bio_split
                0x00000000c00b05a4                __bio_clone
                0x00000000c00b0610                bio_init
                0x00000000c00b0854                zero_fill_bio
                0x00000000c00b08cc                bio_put
                0x00000000c00b0938                bio_unmap_user
                0x00000000c00b0a80                bio_uncopy_user
                0x00000000c00b0af0                bio_pair_release
                0x00000000c00b0d88                bio_add_page
                0x00000000c00b0df8                bio_add_pc_page
                0x00000000c00b0e4c                bvec_nr_vecs
                0x00000000c00b0e70                bvec_free_bs
                0x00000000c00b0ec8                bio_free
                0x00000000c00b0f40                bvec_alloc_bs
                0x00000000c00b1034                bio_alloc_bioset
                0x00000000c00b114c                bio_clone
                0x00000000c00b1198                bio_kmalloc
                0x00000000c00b11c0                bio_alloc
                0x00000000c00b11f0                bio_map_kern
                0x00000000c00b12f4                bio_copy_user_iov
                0x00000000c00b1608                bio_copy_user
                0x00000000c00b1644                bio_copy_kern
                0x00000000c00b1704                bio_map_user_iov
                0x00000000c00b1994                bio_map_user
                0x00000000c00b19d0                bio_set_pages_dirty
                0x00000000c00b1aac                bio_check_pages_dirty
                0x00000000c00b1b50                I_BDEV
                0x00000000c00b1c0c                bd_release
                0x00000000c00b1c4c                bd_set_size
                0x00000000c00b1d38                ioctl_by_bdev
                0x00000000c00b1e68                __invalidate_device
                0x00000000c00b1f44                check_disk_change
                0x00000000c00b1fa4                check_disk_size_change
                0x00000000c00b2018                bd_release_from_disk
                0x00000000c00b2168                bdput
                0x00000000c00b22b8                blkdev_put
                0x00000000c00b2310                close_bdev_exclusive
                0x00000000c00b2600                blkdev_get
                0x00000000c00b2618                revalidate_disk
                0x00000000c00b2684                bdget
                0x00000000c00b2784                open_by_devnum
                0x00000000c00b2ba8                bd_claim
                0x00000000c00b2c30                bd_claim_by_disk
                0x00000000c00b2e0c                set_blocksize
                0x00000000c00b2ef4                sb_set_blocksize
                0x00000000c00b2f44                sb_min_blocksize
                0x00000000c00b30e4                lookup_bdev
                0x00000000c00b31a0                open_bdev_exclusive
                0x00000000c00b3220                nr_blockdev_pages
                0x00000000c00b3274                bd_forget
                0x00000000c00b3a90                __blockdev_direct_IO
                0x00000000c00b4670                mpage_bio_submit
                0x00000000c00b46a4                mpage_writepages
                0x00000000c00b4714                __mpage_writepage
                0x00000000c00b4c88                mpage_writepage
                0x00000000c00b5284                mpage_readpage
                0x00000000c00b5300                mpage_readpages
                0x00000000c00b556c                set_task_ioprio
                0x00000000c00b5620                sys_ioprio_set
                0x00000000c00b5818                ioprio_best
                0x00000000c00b5850                sys_ioprio_get
                0x00000000c00b5a24                __inode_dir_notify
                0x00000000c00b5ad8                dnotify_parent
                0x00000000c00b5b4c                dnotify_flush
                0x00000000c00b5bec                fcntl_dirnotify
                0x00000000c00b5d84                get_inotify_watch
                0x00000000c00b5e28                inotify_get_cookie
                0x00000000c00b5e58                inotify_init_watch
                0x00000000c00b5e9c                inotify_find_update_watch
                0x00000000c00b5f48                inotify_find_watch
                0x00000000c00b6128                inotify_add_watch
                0x00000000c00b628c                inotify_inode_queue_event
                0x00000000c00b6370                inotify_remove_watch_locked
                0x00000000c00b63c0                inotify_inode_is_dead
                0x00000000c00b6438                inotify_init
                0x00000000c00b64cc                put_inotify_watch
                0x00000000c00b654c                inotify_rm_wd
                0x00000000c00b6638                inotify_rm_watch
                0x00000000c00b6650                inotify_destroy
                0x00000000c00b6758                inotify_unmount_inodes
                0x00000000c00b68d4                inotify_dentry_parent_queue_event
                0x00000000c00b6958                pin_inotify_watch
                0x00000000c00b69b8                unpin_inotify_watch
                0x00000000c00b69dc                inotify_d_instantiate
                0x00000000c00b6a1c                inotify_d_move
                0x00000000c00b6a50                inotify_clone_watch
                0x00000000c00b6b00                inotify_evict_watch
                0x00000000c00b7220                sys_inotify_init1
                0x00000000c00b7464                sys_inotify_init
                0x00000000c00b747c                sys_inotify_add_watch
                0x00000000c00b7610                sys_inotify_rm_watch
                0x00000000c00b7af0                eventpoll_release_file
                0x00000000c00b7b64                sys_epoll_create1
                0x00000000c00b7c50                sys_epoll_create
                0x00000000c00b7c78                sys_epoll_ctl
                0x00000000c00b80e8                sys_epoll_wait
                0x00000000c00b8560                anon_inode_getfd
                0x00000000c00b8b1c                sys_signalfd4
                0x00000000c00b8c98                sys_signalfd
                0x00000000c00b900c                sys_timerfd_create
                0x00000000c00b90b8                sys_timerfd_settime
                0x00000000c00b931c                sys_timerfd_gettime
                0x00000000c00b98cc                eventfd_signal
                0x00000000c00b9940                eventfd_fget
                0x00000000c00b9980                sys_eventfd2
                0x00000000c00b9a0c                sys_eventfd
                0x00000000c00b9ddc                wait_on_sync_kiocb
                0x00000000c00ba5dc                aio_put_req
                0x00000000c00ba600                aio_complete
                0x00000000c00bab90                kick_iocb
                0x00000000c00bacb8                exit_aio
                0x00000000c00bad80                sys_io_setup
                0x00000000c00bb160                sys_io_destroy
                0x00000000c00bb18c                sys_io_submit
                0x00000000c00bb614                sys_io_cancel
                0x00000000c00bb7c0                sys_io_getevents
                0x00000000c00bbc4c                __locks_copy_lock
                0x00000000c00bbc9c                locks_copy_lock
                0x00000000c00bc0a8                posix_unblock_lock
                0x00000000c00bc0d8                vfs_cancel_lock
                0x00000000c00bc128                lock_may_read
                0x00000000c00bc1c0                lock_may_write
                0x00000000c00bc6a8                locks_init_lock
                0x00000000c00bc7a8                posix_test_lock
                0x00000000c00bc828                vfs_test_lock
                0x00000000c00bca00                lease_modify
                0x00000000c00bcacc                flock_lock_file_wait
                0x00000000c00bd1d0                posix_lock_file
                0x00000000c00bd1ec                posix_lock_file_wait
                0x00000000c00bd2d4                locks_mandatory_area
                0x00000000c00bd468                generic_setlease
                0x00000000c00bd694                vfs_lock_file
                0x00000000c00bd6dc                locks_remove_posix
                0x00000000c00bd878                vfs_setlease
                0x00000000c00bd8c4                lease_get_mtime
                0x00000000c00bd92c                __break_lease
                0x00000000c00bdc40                locks_mandatory_locked
                0x00000000c00bdc98                fcntl_getlease
                0x00000000c00bdd04                fcntl_setlease
                0x00000000c00bde40                sys_flock
                0x00000000c00bdf6c                fcntl_getlk
                0x00000000c00be0e0                fcntl_setlk
                0x00000000c00be2a4                fcntl_getlk64
                0x00000000c00be3f4                fcntl_setlk64
                0x00000000c00be5b8                locks_remove_flock
                0x00000000c00be6dc                sys_nfsservctl
                0x00000000c00c1e68                get_vmalloc_info
                0x00000000c00c2d74                task_mem
                0x00000000c00c2e58                task_vsize
                0x00000000c00c2e70                task_statm
                0x00000000c00c3478                de_get
                0x00000000c00c34a0                de_put
                0x00000000c00c354c                proc_get_inode
                0x00000000c00c364c                proc_fill_super
                0x00000000c00c3950                pid_ns_prepare_proc
                0x00000000c00c3978                pid_ns_release_proc
                0x00000000c00c3a18                mem_lseek
                0x00000000c00c682c                mm_for_maps
                0x00000000c00c68c0                added_exe_file_vma
                0x00000000c00c68dc                removed_exe_file_vma
                0x00000000c00c6918                set_mm_exe_file
                0x00000000c00c6968                get_mm_exe_file
                0x00000000c00c6a64                dup_mm_exe_file
                0x00000000c00c6a80                proc_flush_task
                0x00000000c00c6c88                proc_pid_lookup
                0x00000000c00c6dbc                proc_pid_readdir
                0x00000000c00c7684                proc_net_mkdir
                0x00000000c00c76e4                proc_lookup_de
                0x00000000c00c7794                proc_lookup
                0x00000000c00c77b8                proc_readdir_de
                0x00000000c00c7968                proc_readdir
                0x00000000c00c799c                proc_symlink
                0x00000000c00c7a50                proc_mkdir_mode
                0x00000000c00c7ab0                proc_mkdir
                0x00000000c00c7acc                create_proc_entry
                0x00000000c00c7b60                proc_create_data
                0x00000000c00c7c04                free_proc_entry
                0x00000000c00c7c54                remove_proc_entry
                0x00000000c00c8540                proc_pid_status
                0x00000000c00c8a0c                proc_tid_stat
                0x00000000c00c8a30                proc_tgid_stat
                0x00000000c00c8a54                proc_pid_statm
                0x00000000c00c8eb0                proc_tty_register_driver
                0x00000000c00c8f20                proc_tty_unregister_driver
                0x00000000c00c92c8                arch_report_meminfo
                0x00000000c00ca440                proc_net_remove
                0x00000000c00ca460                proc_net_fops_create
                0x00000000c00ca494                single_release_net
                0x00000000c00ca4a8                seq_release_net
                0x00000000c00ca4c0                single_open_net
                0x00000000c00ca500                seq_open_net
                0x00000000c00ca964                part_size_show
                0x00000000c00ca9d4                read_dev_sector
                0x00000000c00caa8c                part_stat_show
                0x00000000c00cab68                __bdevname
                0x00000000c00cabb0                disk_name
                0x00000000c00cac40                bdevname
                0x00000000c00cac64                delete_partition
                0x00000000c00cacc8                add_partition
                0x00000000c00caeac                register_disk
                0x00000000c00cb004                rescan_partitions
                0x00000000c00cb304                del_gendisk
                0x00000000c00cb438                msdos_partition
                0x00000000c00cbafc                sysfs_setattr
                0x00000000c00cbcac                sysfs_get_inode
                0x00000000c00cbe88                sysfs_hash_and_remove
                0x00000000c00cc4a8                sysfs_schedule_callback
                0x00000000c00cc568                sysfs_remove_file
                0x00000000c00cc584                sysfs_remove_file_from_group
                0x00000000c00cc620                sysfs_chmod_file
                0x00000000c00cc810                sysfs_notify_dirent
                0x00000000c00cc858                sysfs_notify
                0x00000000c00cc8d0                sysfs_printk_last_file
                0x00000000c00cc8f4                sysfs_add_file_mode
                0x00000000c00cc98c                sysfs_add_file
                0x00000000c00cc9a4                sysfs_add_file_to_group
                0x00000000c00cca54                sysfs_create_file
                0x00000000c00ccd90                sysfs_get_dentry
                0x00000000c00cce54                sysfs_get_active_two
                0x00000000c00ccea8                sysfs_put_active_two
                0x00000000c00ccecc                release_sysfs_dirent
                0x00000000c00ccfd0                sysfs_new_dirent
                0x00000000c00cd0cc                sysfs_addrm_start
                0x00000000c00cd174                sysfs_remove_one
                0x00000000c00cd214                sysfs_addrm_finish
                0x00000000c00cd428                sysfs_find_dirent
                0x00000000c00cd51c                sysfs_get_dirent
                0x00000000c00cd590                __sysfs_add_one
                0x00000000c00cd63c                sysfs_add_one
                0x00000000c00cd71c                sysfs_create_subdir
                0x00000000c00cd740                sysfs_create_dir
                0x00000000c00cd7a0                sysfs_remove_subdir
                0x00000000c00cd7dc                sysfs_remove_dir
                0x00000000c00cd86c                sysfs_rename_dir
                0x00000000c00cd990                sysfs_move_dir
                0x00000000c00cdd58                sysfs_remove_link
                0x00000000c00cded8                sysfs_create_link
                0x00000000c00cdef0                sysfs_create_link_nowarn
                0x00000000c00cdf08                sysfs_put
                0x00000000c00cdf40                sysfs_get
                0x00000000c00ce594                sysfs_remove_bin_file
                0x00000000c00ce5b0                sysfs_create_bin_file
                0x00000000c00ce5f0                sysfs_remove_group
                0x00000000c00ce89c                sysfs_update_group
                0x00000000c00ce8b8                sysfs_create_group
                0x00000000c00cebe4                devpts_new_index
                0x00000000c00cec9c                devpts_kill_index
                0x00000000c00cece8                devpts_pty_new
                0x00000000c00ceeb4                devpts_get_tty
                0x00000000c00cef00                devpts_pty_kill
                0x00000000c00cefd4                ramfs_get_sb
                0x00000000c00cf004                ramfs_get_inode
                0x00000000c00cf568                fat_cache_destroy
                0x00000000c00cf588                fat_cache_inval_inode
                0x00000000c00cf614                fat_get_cluster
                0x00000000c00cf8e4                fat_bmap
                0x00000000c00d00d4                fat_search_long
                0x00000000c00d1538                fat_remove_entries
                0x00000000c00d167c                fat_scan
                0x00000000c00d1764                fat_dir_empty
                0x00000000c00d1814                fat_get_dotdot_entry
                0x00000000c00d1a58                fat_alloc_new_dir
                0x00000000c00d1c38                fat_add_entries
                0x00000000c00d23a8                fat_subdirs
                0x00000000c00d2cdc                fat_ent_access_init
                0x00000000c00d2d64                fat_ent_read
                0x00000000c00d2f34                fat_free_clusters
                0x00000000c00d31a0                fat_ent_write
                0x00000000c00d3200                fat_alloc_clusters
                0x00000000c00d354c                fat_count_free_clusters
                0x00000000c00d377c                fat_setattr
                0x00000000c00d3a18                fat_getattr
                0x00000000c00d3a50                fat_truncate
                0x00000000c00d3cac                fat_generic_ioctl
                0x00000000c00d415c                fat_attach
                0x00000000c00d41b8                fat_detach
                0x00000000c00d4a44                fat_sync_inode
                0x00000000c00d4ad4                fat_fill_super
                0x00000000c00d5bb8                fat_flush_inodes
                0x00000000c00d5c24                fat_iget
                0x00000000c00d5d94                fat_build_inode
                0x00000000c00d621c                fat_time_unix2fat
                0x00000000c00d63d4                fat_clusters_flush
                0x00000000c00d648c                fat_chain_add
                0x00000000c00d6640                fat_time_fat2unix
                0x00000000c00d676c                fat_sync_bhs
                0x00000000c00d968c                exportfs_encode_fh
                0x00000000c00d9868                exportfs_decode_fh
                0x00000000c00d9d88                nfsd_vers
                0x00000000c00d9e30                nfsd_nrthreads
                0x00000000c00d9e6c                nfsd_reset_versions
                0x00000000c00d9eb8                nfsd_create_serv
                0x00000000c00d9fc4                nfsd_nrpools
                0x00000000c00d9fe8                nfsd_get_nrthreads
                0x00000000c00da050                nfsd_set_nrthreads
                0x00000000c00da1e4                nfsd_svc
                0x00000000c00da2fc                nfsd_dispatch
                0x00000000c00db824                nfserrno
                0x00000000c00dc424                fh_update
                0x00000000c00dc560                fh_put
                0x00000000c00dc618                fh_compose
                0x00000000c00dcb70                SVCFH_fmt
                0x00000000c00dcbd4                fh_verify
                0x00000000c00dd1d4                fsid_source
                0x00000000c00ddba4                nfsd_cross_mnt
                0x00000000c00ddd58                nfsd_lookup_dentry
                0x00000000c00de198                nfsd_lookup
                0x00000000c00de258                nfsd_open
                0x00000000c00de3c8                nfsd_close
                0x00000000c00de3dc                nfsd_sync_dir
                0x00000000c00de444                nfsd_commit
                0x00000000c00de4ec                nfsd_readlink
                0x00000000c00de5d8                nfsd_symlink
                0x00000000c00de874                nfsd_link
                0x00000000c00deafc                nfsd_rename
                0x00000000c00dee00                nfsd_unlink
                0x00000000c00df02c                nfsd_readdir
                0x00000000c00df1f0                nfsd_statfs
                0x00000000c00df230                nfsd_permission
                0x00000000c00df340                nfsd_write
                0x00000000c00df404                nfsd_read
                0x00000000c00df4cc                nfsd_access
                0x00000000c00df5e4                nfsd_setattr
                0x00000000c00df9f0                nfsd_create_v3
                0x00000000c00dfe04                nfsd_create
                0x00000000c00e0228                nfsd_racache_shutdown
                0x00000000c00e028c                nfsd_racache_init
                0x00000000c00e1b20                exp_readlock
                0x00000000c00e1c18                exp_readunlock
                0x00000000c00e1c48                exp_export
                0x00000000c00e208c                exp_unexport
                0x00000000c00e21bc                exp_rootfh
                0x00000000c00e23ac                check_nfsd_access
                0x00000000c00e242c                rqst_exp_get_by_name
                0x00000000c00e24f4                rqst_exp_find
                0x00000000c00e25bc                rqst_exp_parent
                0x00000000c00e268c                exp_pseudoroot
                0x00000000c00e2738                exp_addclient
                0x00000000c00e2804                exp_delclient
                0x00000000c00e2864                nfsd_export_init
                0x00000000c00e28c8                nfsd_export_flush
                0x00000000c00e2904                nfsd_export_shutdown
                0x00000000c00e2980                nfsexp_flags
                0x00000000c00e29cc                nfsd_setuser
                0x00000000c00e2d38                nfsd_lockd_init
                0x00000000c00e2d7c                nfsd_lockd_shutdown
                0x00000000c00e2d9c                nfsd_reply_cache_shutdown
                0x00000000c00e2e28                nfsd_reply_cache_init
                0x00000000c00e2ee0                nfsd_cache_lookup
                0x00000000c00e3280                nfsd_cache_update
                0x00000000c00e3894                nfs2svc_decode_fh
                0x00000000c00e38a8                nfs2svc_encode_fattr
                0x00000000c00e38ec                nfssvc_decode_void
                0x00000000c00e3924                nfssvc_decode_fhandle
                0x00000000c00e3974                nfssvc_decode_sattrargs
                0x00000000c00e39d4                nfssvc_decode_diropargs
                0x00000000c00e3a40                nfssvc_decode_readargs
                0x00000000c00e3b34                nfssvc_decode_writeargs
                0x00000000c00e3c48                nfssvc_decode_createargs
                0x00000000c00e3cb8                nfssvc_decode_renameargs
                0x00000000c00e3d44                nfssvc_decode_readlinkargs
                0x00000000c00e3dcc                nfssvc_decode_linkargs
                0x00000000c00e3e44                nfssvc_decode_symlinkargs
                0x00000000c00e3f04                nfssvc_decode_readdirargs
                0x00000000c00e3fcc                nfssvc_encode_void
                0x00000000c00e3ff4                nfssvc_encode_attrstat
                0x00000000c00e4030                nfssvc_encode_diropres
                0x00000000c00e4084                nfssvc_encode_readlinkres
                0x00000000c00e40f0                nfssvc_encode_readres
                0x00000000c00e4174                nfssvc_encode_readdirres
                0x00000000c00e41e0                nfssvc_encode_statfsres
                0x00000000c00e4274                nfssvc_encode_entry
                0x00000000c00e4354                nfssvc_release_fhandle
                0x00000000c00e44d4                nfsd_stat_init
                0x00000000c00e44f8                nfsd_stat_shutdown
                0x00000000c00e65dc                nfs3svc_decode_fh
                0x00000000c00e65f0                nfs3svc_encode_post_op_attr
                0x00000000c00e660c                fill_post_wcc
                0x00000000c00e6658                nfs3svc_decode_fhandle
                0x00000000c00e66a8                nfs3svc_decode_sattrargs
                0x00000000c00e6748                nfs3svc_decode_diropargs
                0x00000000c00e67b4                nfs3svc_decode_accessargs
                0x00000000c00e6820                nfs3svc_decode_readargs
                0x00000000c00e6940                nfs3svc_decode_writeargs
                0x00000000c00e6acc                nfs3svc_decode_createargs
                0x00000000c00e6b8c                nfs3svc_decode_mkdirargs
                0x00000000c00e6bfc                nfs3svc_decode_symlinkargs
                0x00000000c00e6d78                nfs3svc_decode_mknodargs
                0x00000000c00e6e60                nfs3svc_decode_renameargs
                0x00000000c00e6eec                nfs3svc_decode_readlinkargs
                0x00000000c00e6f74                nfs3svc_decode_linkargs
                0x00000000c00e6fec                nfs3svc_decode_readdirargs
                0x00000000c00e70e8                nfs3svc_decode_readdirplusargs
                0x00000000c00e7218                nfs3svc_decode_commitargs
                0x00000000c00e72c8                nfs3svc_encode_voidres
                0x00000000c00e72f0                nfs3svc_encode_attrstat
                0x00000000c00e7354                nfs3svc_encode_wccstat
                0x00000000c00e738c                nfs3svc_encode_diropres
                0x00000000c00e73e8                nfs3svc_encode_accessres
                0x00000000c00e7448                nfs3svc_encode_readlinkres
                0x00000000c00e74f4                nfs3svc_encode_readres
                0x00000000c00e75d0                nfs3svc_encode_writeres
                0x00000000c00e7684                nfs3svc_encode_createres
                0x00000000c00e76e8                nfs3svc_encode_renameres
                0x00000000c00e772c                nfs3svc_encode_linkres
                0x00000000c00e7770                nfs3svc_encode_readdirres
                0x00000000c00e783c                nfs3svc_encode_entry
                0x00000000c00e7870                nfs3svc_encode_entry_plus
                0x00000000c00e78a4                nfs3svc_encode_fsstatres
                0x00000000c00e7a58                nfs3svc_encode_fsinfores
                0x00000000c00e7b98                nfs3svc_encode_pathconfres
                0x00000000c00e7c6c                nfs3svc_encode_commitres
                0x00000000c00e7cf0                nfs3svc_release_fhandle
                0x00000000c00e7d0c                nfs3svc_release_fhandle2
                0x00000000c00e7f10                nlmclnt_done
                0x00000000c00e7f28                nlmclnt_init
                0x00000000c00e7f90                nlmclnt_prepare_block
                0x00000000c00e7ff8                nlmclnt_finish_block
                0x00000000c00e8034                nlmclnt_block
                0x00000000c00e811c                nlmclnt_grant
                0x00000000c00e82c0                nlmclnt_recovery
                0x00000000c00e8a80                nlmclnt_next_cookie
                0x00000000c00e8b8c                nlm_alloc_call
                0x00000000c00e8c2c                nlm_release_call
                0x00000000c00e8c9c                nlmclnt_proc
                0x00000000c00e92f0                nlm_async_call
                0x00000000c00e935c                nlm_async_reply
                0x00000000c00e93c0                nlmclnt_reclaim
                0x00000000c00e9660                nlm_bind_host
                0x00000000c00e9818                nlm_rebind_host
                0x00000000c00e988c                nlm_get_host
                0x00000000c00e9de8                nlmsvc_lookup_host
                0x00000000c00e9f2c                nlmclnt_lookup_host
                0x00000000c00ea00c                nlm_release_host
                0x00000000c00ea0cc                nlm_host_rebooted
                0x00000000c00ea1a4                nlm_shutdown_hosts
                0x00000000c00ea440                lockd_up
                0x00000000c00ea8a8                lockd_down
                0x00000000c00eb30c                nlmsvc_traverse_blocks
                0x00000000c00eb3b4                nlmsvc_lock
                0x00000000c00eb628                nlmsvc_testlock
                0x00000000c00eb85c                nlmsvc_cancel_blocked
                0x00000000c00eb93c                nlmsvc_unlock
                0x00000000c00eb9dc                nlmsvc_grant_reply
                0x00000000c00ebacc                nlmsvc_retry_blocked
                0x00000000c00ebd38                nlmsvc_share_file
                0x00000000c00ebe28                nlmsvc_unshare_file
                0x00000000c00ebea0                nlmsvc_traverse_shares
                0x00000000c00eced0                nlmsvc_unlock_all_by_ip
                0x00000000c00ecef8                nlmsvc_unlock_all_by_sb
                0x00000000c00ed004                nlm_lookup_file
                0x00000000c00ed284                nlm_release_file
                0x00000000c00ed3d4                nlmsvc_mark_resources
                0x00000000c00ed418                nlmsvc_free_host_resources
                0x00000000c00ed484                nlmsvc_invalidate_all
                0x00000000c00ed90c                nsm_monitor
                0x00000000c00ed9c4                nsm_unmonitor
                0x00000000c00eda60                nsm_get_handle
                0x00000000c00eddd8                nsm_reboot_lookup
                0x00000000c00edeb4                nsm_release
                0x00000000c00ee8e8                nlmsvc_decode_testargs
                0x00000000c00ee968                nlmsvc_encode_testres
                0x00000000c00ee9a8                nlmsvc_decode_lockargs
                0x00000000c00eea80                nlmsvc_decode_cancargs
                0x00000000c00eeb1c                nlmsvc_decode_unlockargs
                0x00000000c00eeb8c                nlmsvc_decode_shareargs
                0x00000000c00eec74                nlmsvc_encode_shareres
                0x00000000c00eecf8                nlmsvc_encode_res
                0x00000000c00eed74                nlmsvc_decode_notify
                0x00000000c00eede8                nlmsvc_decode_reboot
                0x00000000c00eee74                nlmsvc_decode_res
                0x00000000c00eeed0                nlmsvc_decode_void
                0x00000000c00eef08                nlmsvc_encode_void
                0x00000000c00eef30                nlmdbg_cookie2a
                0x00000000c00eefa4                locks_start_grace
                0x00000000c00eefcc                locks_end_grace
                0x00000000c00eeff0                locks_in_grace
                0x00000000c00efa1c                nlm4svc_decode_testargs
                0x00000000c00efa9c                nlm4svc_encode_testres
                0x00000000c00efadc                nlm4svc_decode_lockargs
                0x00000000c00efbb4                nlm4svc_decode_cancargs
                0x00000000c00efc50                nlm4svc_decode_unlockargs
                0x00000000c00efcc0                nlm4svc_decode_shareargs
                0x00000000c00efda8                nlm4svc_encode_shareres
                0x00000000c00efe00                nlm4svc_encode_res
                0x00000000c00efe4c                nlm4svc_decode_notify
                0x00000000c00efec0                nlm4svc_decode_reboot
                0x00000000c00eff4c                nlm4svc_decode_res
                0x00000000c00effa8                nlm4svc_decode_void
                0x00000000c00effe0                nlm4svc_encode_void
                0x00000000c00f0ca8                utf8_mbtowc
                0x00000000c00f0d40                utf8_mbstowcs
                0x00000000c00f0db4                utf8_wctomb
                0x00000000c00f0e48                utf8_wcstombs
                0x00000000c00f0ea8                register_nls
                0x00000000c00f0f04                unregister_nls
                0x00000000c00f0f50                unload_nls
                0x00000000c00f1070                load_nls
                0x00000000c00f10a8                load_nls_default
                0x00000000c00f2170                smb_setcodepage
                0x00000000c00f223c                smb_len
                0x00000000c00f24ac                smb_get_rsize
                0x00000000c00f24c4                smb_get_wsize
                0x00000000c00f24dc                smb_errno
                0x00000000c00f37d4                smb_newconn
                0x00000000c00f3b64                smb_setup_header
                0x00000000c00f4cf4                smb_open
                0x00000000c00f4db0                smb_close
                0x00000000c00f4de8                smb_close_fileid
                0x00000000c00f4e18                smb_proc_create
                0x00000000c00f4f0c                smb_proc_mv
                0x00000000c00f4fd8                smb_proc_mkdir
                0x00000000c00f4ff0                smb_proc_rmdir
                0x00000000c00f5008                smb_proc_unlink
                0x00000000c00f5154                smb_proc_flush
                0x00000000c00f51fc                smb_init_root_dirent
                0x00000000c00f525c                smb_proc_getattr
                0x00000000c00f52b0                smb_proc_setattr
                0x00000000c00f52d8                smb_proc_setattr_unix
                0x00000000c00f5874                smb_proc_settime
                0x00000000c00f5aec                smb_proc_dskattr
                0x00000000c00f5bc0                smb_proc_read_link
                0x00000000c00f5c9c                smb_proc_symlink
                0x00000000c00f5d60                smb_proc_link
                0x00000000c00f5e38                smb_install_null_ops
                0x00000000c00f65c0                smb_new_dentry
                0x00000000c00f6608                smb_renew_times
                0x00000000c00f6b74                smb_invalid_dir_cache
                0x00000000c00f6c28                smb_invalidate_dircache_entries
                0x00000000c00f6c8c                smb_dget_fpos
                0x00000000c00f6d38                smb_fill_cache
                0x00000000c00f71e8                smb_data_ready
                0x00000000c00f7210                smb_valid_socket
                0x00000000c00f72b0                smb_close_socket
                0x00000000c00f72f0                smb_recv_available
                0x00000000c00f7388                smb_receive_header
                0x00000000c00f7510                smb_receive_drop
                0x00000000c00f75d4                smb_receive
                0x00000000c00f76a4                smb_send_request
                0x00000000c00f7ad8                smb_get_inode_attr
                0x00000000c00f7b7c                smb_set_inode_attr
                0x00000000c00f7d4c                smb_iget
                0x00000000c00f8334                smb_invalidate_inodes
                0x00000000c00f8358                smb_revalidate_inode
                0x00000000c00f83c0                smb_getattr
                0x00000000c00f83f8                smb_notify_change
                0x00000000c00f8d6c                smb_ioctl
                0x00000000c00f8eac                smb_getopt
                0x00000000c00f9090                smb_symlink
                0x00000000c00f90ac                smbiod_wake_up
                0x00000000c00f9100                smbiod_register_server
                0x00000000c00f91a0                smbiod_flush
                0x00000000c00f9260                smbiod_unregister_server
                0x00000000c00f9294                smbiod_retry
                0x00000000c00f9748                smb_init_request_cache
                0x00000000c00f9794                smb_destroy_request_cache
                0x00000000c00f97b4                smb_alloc_request
                0x00000000c00f987c                smb_rput
                0x00000000c00f9918                smb_add_request
                0x00000000c00f9db0                smb_request_send_server
                0x00000000c00f9e20                smb_request_recv
                0x00000000c00fada8                fuse_request_alloc
                0x00000000c00faddc                fuse_request_alloc_nofs
                0x00000000c00fae10                fuse_request_free
                0x00000000c00fae34                fuse_get_req
                0x00000000c00faf90                fuse_get_req_nofail
                0x00000000c00fb118                fuse_put_request
                0x00000000c00fbb90                fuse_request_send
                0x00000000c00fbe5c                fuse_request_send_noreply
                0x00000000c00fbe7c                fuse_request_send_background
                0x00000000c00fbe9c                fuse_request_send_background_locked
                0x00000000c00fbf1c                fuse_abort_conn
                0x00000000c00fc0fc                fuse_dev_cleanup
                0x00000000c00fd784                fuse_invalidate_attr
                0x00000000c00fd7a4                fuse_invalidate_entry_cache
                0x00000000c00fd7c0                fuse_get_attr_version
                0x00000000c00fd7dc                fuse_valid_type
                0x00000000c00fd838                fuse_lookup_name
                0x00000000c00fdb34                fuse_update_attributes
                0x00000000c00fdbb4                fuse_allow_task
                0x00000000c00fdfc4                fuse_set_nowrite
                0x00000000c00fe094                fuse_release_nowrite
                0x00000000c00fe524                fuse_init_common
                0x00000000c00fe540                fuse_init_dir
                0x00000000c00fe568                fuse_init_symlink
                0x00000000c00ff66c                fuse_file_alloc
                0x00000000c00ff720                fuse_file_free
                0x00000000c00ff744                fuse_finish_open
                0x00000000c00ff7c8                fuse_open_common
                0x00000000c00ff92c                fuse_release_fill
                0x00000000c00ff974                fuse_release_common
                0x00000000c00ffab8                fuse_lock_owner_id
                0x00000000c01006c8                fuse_fsync_common
                0x00000000c0100830                fuse_read_fill
                0x00000000c0101090                fuse_flush_writepages
                0x00000000c0101448                fuse_notify_poll_wakeup
                0x00000000c01014ac                fuse_init_file_inode
                0x00000000c0101d24                fuse_conn_init
                0x00000000c0101fb4                fuse_send_forget
                0x00000000c0101ff4                fuse_truncate
                0x00000000c0102078                fuse_change_attributes_common
                0x00000000c010216c                fuse_change_attributes
                0x00000000c0102214                fuse_iget
                0x00000000c01023b0                fuse_conn_put
                0x00000000c0102518                fuse_conn_get
                0x00000000c0102c9c                fuse_ctl_remove_conn
                0x00000000c0102d44                fuse_ctl_add_conn
                0x00000000c0102f3c                fuse_ctl_cleanup
                0x00000000c0102f88                yaffs_ECCCalculate
                0x00000000c0103088                yaffs_ECCCorrect
                0x00000000c01031b0                yaffs_ECCCalculateOther
                0x00000000c0103214                yaffs_ECCCorrectOther
                0x00000000c0104e48                yaffs_get_inode
                0x00000000c0107570                yaffs_GetTempBuffer
                0x00000000c010768c                yaffs_ReleaseTempBuffer
                0x00000000c01084ac                yaffs_IsManagedTempBuffer
                0x00000000c0108538                yaffs_Root
                0x00000000c010854c                yaffs_LostNFound
                0x00000000c0108560                yaffs_CheckFF
                0x00000000c01089d8                yaffs_HandleChunkError
                0x00000000c0108a44                yaffs_PutLevel0Tnode
                0x00000000c0108c4c                yaffs_HandleDeferedFree
                0x00000000c0108c74                yaffs_FindObjectByNumber
                0x00000000c0108da4                yaffs_DeleteChunk
                0x00000000c010974c                yaffs_CheckpointSave
                0x00000000c0109c50                yaffs_CheckpointRestore
                0x00000000c010a2c8                yaffs_GetEquivalentObject
                0x00000000c010a2fc                yaffs_GetFileSize
                0x00000000c010a348                yaffs_GetObjectName
                0x00000000c010a498                yaffs_FindObjectByName
                0x00000000c010b8d0                yaffs_FlushFile
                0x00000000c010ba5c                yaffs_ReadDataFromFile
                0x00000000c010bc74                yaffs_FlushEntireDeviceCache
                0x00000000c010bce8                yaffs_WriteDataToFile
                0x00000000c010c09c                yaffs_ResizeFile
                0x00000000c010c4a0                yaffs_DeleteFile
                0x00000000c010c5fc                yaffs_DeleteObject
                0x00000000c010c820                yaffs_Link
                0x00000000c010c87c                yaffs_MknodSymLink
                0x00000000c010c8d4                yaffs_MknodSpecial
                0x00000000c010c92c                yaffs_MknodDirectory
                0x00000000c010c980                yaffs_MknodFile
                0x00000000c010cb40                yaffs_Unlink
                0x00000000c010cb80                yaffs_RenameObject
                0x00000000c010ccd8                yaffs_GetObjectFileLength
                0x00000000c010cd18                yaffs_GetObjectLinkCount
                0x00000000c010cd54                yaffs_GetObjectInode
                0x00000000c010cd6c                yaffs_GetObjectType
                0x00000000c010cdfc                yaffs_GetSymlinkAlias
                0x00000000c010ce34                yaffs_SetAttributes
                0x00000000c010cec8                yaffs_GetAttributes
                0x00000000c010cf20                yaffs_Deinitialise
                0x00000000c010d048                yaffs_GutsInitialise
                0x00000000c010ee90                yaffs_GetNumberOfFreeChunks
                0x00000000c010f30c                yaffs_CheckpointOpen
                0x00000000c010f47c                yaffs_GetCheckpointSum
                0x00000000c010f4a0                yaffs_CheckpointWrite
                0x00000000c010f560                yaffs_CheckpointRead
                0x00000000c010f7fc                yaffs_CheckpointClose
                0x00000000c010f910                yaffs_CheckpointInvalidateStream
                0x00000000c010f950                yaffs_PackTags1
                0x00000000c010f9d0                yaffs_UnpackTags1
                0x00000000c010fa74                yaffs_PackTags2TagsPart
                0x00000000c010fbb0                yaffs_PackTags2
                0x00000000c010fbc4                yaffs_UnpackTags2TagsPart
                0x00000000c010fd18                yaffs_UnpackTags2
                0x00000000c010fdc4                yaffs_ReadChunkWithTagsFromNAND
                0x00000000c010fe94                yaffs_WriteChunkWithTagsToNAND
                0x00000000c010ff74                yaffs_MarkBlockBad
                0x00000000c010ffa4                yaffs_QueryInitialBlockState
                0x00000000c010ffd4                yaffs_EraseBlockInNAND
                0x00000000c0110000                yaffs_InitialiseNAND
                0x00000000c0110018                yaffs_qsort
                0x00000000c0110ae4                yaffs_CountBits
                0x00000000c0110b00                yaffs_CalcECC
                0x00000000c0110b2c                yaffs_CalcTagsECC
                0x00000000c0110b98                yaffs_CheckECCOnTags
                0x00000000c0110c00                yaffs_TagsCompatabilityWriteChunkWithTagsToNAND
                0x00000000c0110d5c                yaffs_TagsCompatabilityReadChunkWithTagsFromNAND
                0x00000000c0110ef0                yaffs_TagsCompatabilityMarkNANDBlockBad
                0x00000000c0110fa4                yaffs_TagsCompatabilityQueryNANDBlock
                0x00000000c011108c                yaffs_InitialiseTags
                0x00000000c01110c0                yaffs_ValidateTags
                0x00000000c0111104                nandmtd_WriteChunkToNAND
                0x00000000c0111250                nandmtd_ReadChunkFromNAND
                0x00000000c01113d4                nandmtd_EraseBlockInNAND
                0x00000000c011145c                nandmtd_InitialiseNAND
                0x00000000c0111470                nandmtd1_WriteChunkWithTagsToNAND
                0x00000000c0111560                nandmtd1_ReadChunkWithTagsFromNAND
                0x00000000c011175c                nandmtd1_MarkNANDBlockBad
                0x00000000c01117b8                nandmtd1_QueryNANDBlock
                0x00000000c01118ac                nandmtd2_WriteChunkWithTagsToNAND
                0x00000000c01119a4                nandmtd2_ReadChunkWithTagsFromNAND
                0x00000000c0111bb8                nandmtd2_MarkNANDBlockBad
                0x00000000c0111c1c                nandmtd2_QueryNANDBlock
 .text          0x00000000c0111d24     0x4880 ipc/built-in.o
                0x00000000c011201c                ipc_init_ids
                0x00000000c0112064                ipc_get_maxid
                0x00000000c01120dc                ipc_addid
                0x00000000c0112198                ipc_rmid
                0x00000000c01121f0                ipc_alloc
                0x00000000c0112218                ipc_free
                0x00000000c011223c                ipc_rcu_alloc
                0x00000000c01122a0                ipc_rcu_getref
                0x00000000c01122bc                ipc_rcu_putref
                0x00000000c0112300                ipcperms
                0x00000000c01123a0                kernel_to_ipc64_perm
                0x00000000c01123e8                ipc64_perm_to_ipc_perm
                0x00000000c0112498                ipc_lock
                0x00000000c01124f0                ipc_lock_check
                0x00000000c0112528                ipcget
                0x00000000c0112704                ipc_update_perm
                0x00000000c011273c                ipcctl_pre_down
                0x00000000c01127c8                ipc_parse_version
                0x00000000c01127f0                store_msg
                0x00000000c01128d4                free_msg
                0x00000000c0112908                load_msg
                0x00000000c0112bfc                recompute_msgmni
                0x00000000c0112c7c                msg_init_ns
                0x00000000c0112cd8                sys_msgget
                0x00000000c0112d44                sys_msgctl
                0x00000000c01132a0                do_msgsnd
                0x00000000c01135cc                sys_msgsnd
                0x00000000c011361c                do_msgrcv
                0x00000000c0113940                sys_msgrcv
                0x00000000c01141ac                sem_init_ns
                0x00000000c01141ec                sys_semget
                0x00000000c011427c                sys_semctl
                0x00000000c011475c                sys_semtimedop
                0x00000000c0114d20                sys_semop
                0x00000000c0114d38                copy_semundo
                0x00000000c0114de0                exit_sem
                0x00000000c0115474                shm_init_ns
                0x00000000c01154ac                is_file_shm_hugepages
                0x00000000c01154c0                sys_shmget
                0x00000000c0115534                sys_shmctl
                0x00000000c0115b6c                do_shmat
                0x00000000c0115e90                sys_shmat
                0x00000000c0115eb8                sys_shmdt
                0x00000000c0116054                register_ipcns_notifier
                0x00000000c01160a8                cond_register_ipcns_notifier
                0x00000000c01160fc                unregister_ipcns_notifier
                0x00000000c0116128                ipcns_notify
 .text          0x00000000c01165a4      0xb40 security/built-in.o
                0x00000000c01165a4                cap_netlink_recv
                0x00000000c01165d4                cap_netlink_send
                0x00000000c011660c                cap_capable
                0x00000000c0116688                cap_settime
                0x00000000c01166ac                cap_ptrace_may_access
                0x00000000c0116728                cap_ptrace_traceme
                0x00000000c01167b0                cap_capget
                0x00000000c01167f0                cap_capset
                0x00000000c0116964                cap_inode_need_killpriv
                0x00000000c0116978                cap_inode_killpriv
                0x00000000c011698c                get_vfs_caps_from_disk
                0x00000000c01169ac                cap_bprm_set_creds
                0x00000000c0116bc8                cap_bprm_secureexec
                0x00000000c0116c60                cap_inode_setxattr
                0x00000000c0116cdc                cap_inode_removexattr
                0x00000000c0116d58                cap_task_fix_setuid
                0x00000000c0116f74                cap_task_setscheduler
                0x00000000c0116f88                cap_task_setioprio
                0x00000000c0116f9c                cap_task_setnice
                0x00000000c0116fb0                cap_task_prctl
                0x00000000c0117060                cap_syslog
                0x00000000c0117098                cap_vm_enough_memory
 .text          0x00000000c01170e4    0x14024 crypto/built-in.o
                0x00000000c01170e4                crypto_mod_get
                0x00000000c011712c                crypto_shoot_alg
                0x00000000c0117164                crypto_larval_alloc
                0x00000000c01171e4                crypto_mod_put
                0x00000000c011739c                crypto_alg_lookup
                0x00000000c01173e8                crypto_larval_lookup
                0x00000000c01175a4                crypto_destroy_tfm
                0x00000000c0117618                crypto_create_tfm
                0x00000000c01176cc                crypto_alloc_tfm
                0x00000000c0117790                __crypto_alloc_tfm
                0x00000000c0117964                crypto_probing_notify
                0x00000000c01179b4                crypto_larval_kill
                0x00000000c0117a38                crypto_alg_mod_lookup
                0x00000000c0117ab0                crypto_has_alg
                0x00000000c0117adc                crypto_alloc_base
                0x00000000c0117ce0                crypto_init_cipher_ops
                0x00000000c0117d34                crypto_exit_cipher_ops
                0x00000000c01181dc                crypto_init_digest_ops
                0x00000000c0118260                crypto_exit_digest_ops
                0x00000000c0118270                crypto_init_digest_ops_async
                0x00000000c011834c                crypto_init_compress_ops
                0x00000000c0118378                crypto_exit_compress_ops
                0x00000000c0118418                crypto_get_attr_type
                0x00000000c0118460                crypto_attr_u32
                0x00000000c01184ac                crypto_init_queue
                0x00000000c01184d4                crypto_tfm_in_queue
                0x00000000c0118518                crypto_xor
                0x00000000c0118588                crypto_inc
                0x00000000c0118610                crypto_check_attr_type
                0x00000000c0118644                crypto_dequeue_request
                0x00000000c01186a4                crypto_enqueue_request
                0x00000000c011870c                crypto_unregister_notifier
                0x00000000c011872c                crypto_register_notifier
                0x00000000c011874c                crypto_spawn_tfm
                0x00000000c01187fc                crypto_drop_spawn
                0x00000000c0118848                crypto_init_spawn
                0x00000000c01188a8                crypto_alloc_instance
                0x00000000c0118d88                crypto_register_template
                0x00000000c0118e10                crypto_unregister_template
                0x00000000c0118f58                crypto_unregister_alg
                0x00000000c0119030                crypto_alg_tested
                0x00000000c011926c                crypto_larval_error
                0x00000000c01192a4                crypto_attr_alg_name
                0x00000000c01192f0                crypto_attr_alg
                0x00000000c011932c                crypto_lookup_template
                0x00000000c011935c                crypto_register_instance
                0x00000000c01193f0                crypto_register_alg
                0x00000000c0119448                scatterwalk_map
                0x00000000c01194b0                scatterwalk_start
                0x00000000c0119594                scatterwalk_copychunks
                0x00000000c0119650                scatterwalk_done
                0x00000000c0119684                scatterwalk_map_and_copy
                0x00000000c0119990                crypto_aead_setauthsize
                0x00000000c0119ebc                crypto_alloc_aead
                0x00000000c0119f58                crypto_grab_aead
                0x00000000c0119fc4                aead_geniv_exit
                0x00000000c0119fe0                aead_geniv_init
                0x00000000c011a028                aead_geniv_free
                0x00000000c011a04c                aead_geniv_alloc
                0x00000000c011a2ac                skcipher_null_givencrypt
                0x00000000c011a2cc                skcipher_null_givdecrypt
                0x00000000c011a7d4                crypto_alloc_ablkcipher
                0x00000000c011a870                crypto_grab_skcipher
                0x00000000c011a8dc                crypto_default_geniv
                0x00000000c011ab60                skcipher_geniv_exit
                0x00000000c011ab7c                skcipher_geniv_init
                0x00000000c011abc4                skcipher_geniv_free
                0x00000000c011abe8                skcipher_geniv_alloc
                0x00000000c011aeb0                blkcipher_walk_done
                0x00000000c011b53c                blkcipher_walk_virt_block
                0x00000000c011b560                blkcipher_walk_phys
                0x00000000c011b590                blkcipher_walk_virt
                0x00000000c011c66c                crypto_ahash_import
                0x00000000c011c750                crypto_hash_walk_done
                0x00000000c011c860                crypto_hash_walk_first
                0x00000000c011c8ac                crypto_hash_walk_first_compat
                0x00000000c011c9c4                crypto_unregister_shash
                0x00000000c011c9dc                crypto_register_shash
                0x00000000c011cacc                crypto_alloc_shash
                0x00000000c011caf4                crypto_shash_import
                0x00000000c011cb94                crypto_shash_final
                0x00000000c011cc8c                crypto_shash_update
                0x00000000c011cd70                crypto_shash_setkey
                0x00000000c011cfb4                crypto_shash_digest
                0x00000000c011d204                crypto_shash_finup
                0x00000000c011effc                alg_test
                0x00000000c011f234                testmgr_exit
                0x00000000c0122fa8                des_ekey
                0x00000000c012662c                twofish_setkey
                0x00000000c0127fdc                crypto_aes_expand_key
                0x00000000c01283e8                crypto_aes_set_key
                0x00000000c012afe0                crypto_put_default_rng
                0x00000000c012b030                crypto_get_default_rng
 .text          0x00000000c012b108     0xdd40 block/built-in.o
                0x00000000c012b108                elv_rb_find
                0x00000000c012b148                elv_queue_empty
                0x00000000c012b188                elv_unregister
                0x00000000c012b258                elv_rb_latter_request
                0x00000000c012b278                elv_rb_former_request
                0x00000000c012b444                elevator_exit
                0x00000000c012b494                elv_abort_queue
                0x00000000c012b4dc                elv_next_request
                0x00000000c012b69c                elv_rb_add
                0x00000000c012b70c                elv_rq_merge_ok
                0x00000000c012b7fc                elv_dispatch_sort
                0x00000000c012b8b0                elv_dispatch_add_tail
                0x00000000c012ba34                elevator_init
                0x00000000c012bb2c                elv_register
                0x00000000c012bc5c                elv_rb_del
                0x00000000c012bcb4                elv_merge
                0x00000000c012be34                elv_merged_request
                0x00000000c012bea8                elv_merge_requests
                0x00000000c012bf28                elv_insert
                0x00000000c012c11c                __elv_add_request
                0x00000000c012c1e0                elv_add_request
                0x00000000c012c200                elv_requeue_request
                0x00000000c012c28c                elv_dequeue_request
                0x00000000c012c30c                elv_latter_request
                0x00000000c012c33c                elv_former_request
                0x00000000c012c36c                elv_set_request
                0x00000000c012c3a0                elv_put_request
                0x00000000c012c3cc                elv_may_queue
                0x00000000c012c3fc                elv_completed_request
                0x00000000c012c4c8                elv_register_queue
                0x00000000c012c550                elv_unregister_queue
                0x00000000c012c584                elv_iosched_store
                0x00000000c012c704                elv_iosched_show
                0x00000000c012c798                blk_get_backing_dev_info
                0x00000000c012c7b8                blk_unplug_work
                0x00000000c012c7d4                blk_unplug
                0x00000000c012c868                blk_rq_bytes
                0x00000000c012c88c                blk_rq_cur_bytes
                0x00000000c012c8c0                blk_lld_busy
                0x00000000c012c8e8                kblockd_schedule_work
                0x00000000c012c908                blk_dump_rq_flags
                0x00000000c012c9e4                part_round_stats
                0x00000000c012cebc                blkdev_dequeue_request
                0x00000000c012d0b0                blk_requeue_request
                0x00000000c012d10c                blk_alloc_queue_node
                0x00000000c012d1e0                blk_alloc_queue
                0x00000000c012d1f8                blk_sync_queue
                0x00000000c012d224                blk_cleanup_queue
                0x00000000c012d278                blk_rq_init
                0x00000000c012d358                blk_start_queue
                0x00000000c012d39c                generic_make_request
                0x00000000c012d5d8                submit_bio
                0x00000000c012d6c4                blk_rq_check_limits
                0x00000000c012d754                blk_update_request
                0x00000000c012d7b4                blk_insert_cloned_request
                0x00000000c012d830                __blk_put_request
                0x00000000c012d8d0                blk_put_request
                0x00000000c012db64                blk_end_request_callback
                0x00000000c012db88                blk_end_bidi_request
                0x00000000c012dbac                blk_end_request
                0x00000000c012dbd0                __blk_end_request
                0x00000000c012dc20                end_request
                0x00000000c012dc4c                blk_remove_plug
                0x00000000c012dca4                __blk_run_queue
                0x00000000c012dcd4                blk_run_queue
                0x00000000c012dcf4                blk_stop_queue
                0x00000000c012dd18                blk_plug_device
                0x00000000c012dd88                blk_plug_device_unlocked
                0x00000000c012dfdc                blk_queue_congestion_threshold
                0x00000000c012e018                blk_init_queue_node
                0x00000000c012e184                blk_init_queue
                0x00000000c012e19c                __generic_unplug_device
                0x00000000c012e1e0                blk_start_queueing
                0x00000000c012e218                blk_insert_request
                0x00000000c012e37c                blk_get_request
                0x00000000c012e3c8                generic_unplug_device
                0x00000000c012e3f0                blk_unplug_timeout
                0x00000000c012e408                blk_put_queue
                0x00000000c012e420                blk_get_queue
                0x00000000c012e454                blk_rq_bio_prep
                0x00000000c012e540                init_request_from_bio
                0x00000000c012e99c                blk_queue_free_tags
                0x00000000c012e9b8                blk_queue_invalidate_tags
                0x00000000c012e9f4                blk_queue_find_tag
                0x00000000c012ea24                blk_queue_start_tag
                0x00000000c012eb1c                blk_queue_end_tag
                0x00000000c012eca0                blk_queue_resize_tags
                0x00000000c012edbc                blk_queue_init_tags
                0x00000000c012ee88                blk_init_tags
                0x00000000c012ef30                blk_free_tags
                0x00000000c012ef58                __blk_queue_free_tags
                0x00000000c012f57c                blk_register_queue
                0x00000000c012f624                blk_unregister_queue
                0x00000000c012f690                blkdev_issue_discard
                0x00000000c012f80c                blkdev_issue_flush
                0x00000000c012f998                blk_queue_ordered
                0x00000000c012fa18                blk_ordered_cur_seq
                0x00000000c012fa4c                blk_ordered_req_seq
                0x00000000c012fadc                blk_ordered_complete_seq
                0x00000000c012fc10                blk_do_ordered
                0x00000000c012fe80                blk_queue_prep_rq
                0x00000000c012fe94                blk_queue_set_discard
                0x00000000c012fea8                blk_queue_merge_bvec
                0x00000000c012febc                blk_queue_softirq_done
                0x00000000c012fed0                blk_queue_rq_timeout
                0x00000000c012fee4                blk_queue_rq_timed_out
                0x00000000c012fef8                blk_queue_lld_busy
                0x00000000c012ff0c                blk_queue_bounce_limit
                0x00000000c012ff48                blk_queue_hardsect_size
                0x00000000c012ff60                blk_queue_dma_pad
                0x00000000c012ff74                blk_queue_update_dma_pad
                0x00000000c012ff90                blk_queue_dma_drain
                0x00000000c012ffe4                blk_queue_dma_alignment
                0x00000000c012fff8                blk_queue_segment_boundary
                0x00000000c0130038                blk_queue_max_segment_size
                0x00000000c0130074                blk_queue_max_hw_segments
                0x00000000c01300b4                blk_queue_max_phys_segments
                0x00000000c01300f4                blk_queue_max_sectors
                0x00000000c013014c                blk_queue_stack_limits
                0x00000000c01302d0                blk_queue_make_request
                0x00000000c013039c                blk_queue_update_dma_alignment
                0x00000000c01303d0                put_io_context
                0x00000000c0130474                copy_io_context
                0x00000000c01304d0                exit_io_context
                0x00000000c0130558                alloc_io_context
                0x00000000c01305e8                current_io_context
                0x00000000c0130628                get_io_context
                0x00000000c013068c                blk_rq_map_kern
                0x00000000c01307d8                blk_rq_unmap_user
                0x00000000c013083c                blk_rq_map_user_iov
                0x00000000c01309a4                blk_rq_append_bio
                0x00000000c0130a00                blk_rq_map_user
                0x00000000c0130c38                blk_execute_rq_nowait
                0x00000000c0130cd0                blk_execute_rq
                0x00000000c0130ef8                blk_recount_segments
                0x00000000c0130f30                blk_rq_map_sg
                0x00000000c0131488                blk_recalc_rq_sectors
                0x00000000c0131590                blk_recalc_rq_segments
                0x00000000c01315b4                ll_back_merge_fn
                0x00000000c0131680                ll_front_merge_fn
                0x00000000c013174c                attempt_back_merge
                0x00000000c0131784                attempt_front_merge
                0x00000000c013183c                __blk_complete_request
                0x00000000c01318b0                blk_complete_request
                0x00000000c01318e4                blk_delete_timer
                0x00000000c0131910                blk_add_timer
                0x00000000c0131a54                blk_abort_request
                0x00000000c0131a94                blk_abort_queue
                0x00000000c0131b30                blk_rq_timed_out_timer
                0x00000000c0131c14                __blkdev_driver_ioctl
                0x00000000c0131cb0                blkdev_ioctl
                0x00000000c01325ec                disk_part_iter_init
                0x00000000c013262c                disk_map_sector_rcu
                0x00000000c01326dc                set_device_ro
                0x00000000c01326f4                bdev_read_only
                0x00000000c01329cc                put_disk
                0x00000000c01329ec                get_disk
                0x00000000c0132a58                disk_part_iter_exit
                0x00000000c0132ae0                unregister_blkdev
                0x00000000c0132b84                blk_unregister_region
                0x00000000c0132bb0                blk_register_region
                0x00000000c0132c04                register_blkdev
                0x00000000c0132d20                disk_part_iter_next
                0x00000000c0132f90                set_disk_ro
                0x00000000c0132fe0                disk_get_part
                0x00000000c0133034                blk_lookup_devt
                0x00000000c01330f8                bdget_disk
                0x00000000c0133130                invalidate_partition
                0x00000000c0133288                blkdev_show
                0x00000000c01332f4                blk_alloc_devt
                0x00000000c01333c0                add_disk
                0x00000000c01334ec                blk_free_devt
                0x00000000c0133538                unlink_gendisk
                0x00000000c013357c                get_gendisk
                0x00000000c0133638                disk_expand_part_tbl
                0x00000000c013370c                alloc_disk_node
                0x00000000c01337b8                alloc_disk
                0x00000000c01337d0                blk_set_cmd_filter_defaults
                0x00000000c0133c40                sg_scsi_ioctl
                0x00000000c013402c                scsi_cmd_ioctl
                0x00000000c0134434                blk_verify_command
 .text          0x00000000c0138e48       0x1c arch/arm/lib/lib.a(ashldi3.o)
                0x00000000c0138e48                __ashldi3
                0x00000000c0138e48                __aeabi_llsl
 .text          0x00000000c0138e64       0x1c arch/arm/lib/lib.a(ashrdi3.o)
                0x00000000c0138e64                __ashrdi3
                0x00000000c0138e64                __aeabi_lasr
 .text          0x00000000c0138e80      0x160 arch/arm/lib/lib.a(backtrace.o)
                0x00000000c0138e80                __backtrace
                0x00000000c0138e88                c_backtrace
 .text          0x00000000c0138fe0       0x2c arch/arm/lib/lib.a(changebit.o)
                0x00000000c0138fe0                _change_bit_be
                0x00000000c0138fe4                _change_bit_le
 .text          0x00000000c013900c       0x64 arch/arm/lib/lib.a(clear_user.o)
                0x00000000c013900c                __clear_user
 .text          0x00000000c0139070       0x2c arch/arm/lib/lib.a(clearbit.o)
                0x00000000c0139070                _clear_bit_be
                0x00000000c0139074                _clear_bit_le
 .text          0x00000000c013909c      0x39c arch/arm/lib/lib.a(copy_from_user.o)
                0x00000000c013909c                __copy_from_user
 *fill*         0x00000000c0139438        0x8 00
 .text          0x00000000c0139440       0x60 arch/arm/lib/lib.a(copy_page.o)
                0x00000000c0139440                copy_page
 .text          0x00000000c01394a0      0x3a8 arch/arm/lib/lib.a(copy_to_user.o)
                0x00000000c01394a0                __copy_to_user
 .text          0x00000000c0139848       0x40 arch/arm/lib/lib.a(csumipv6.o)
                0x00000000c0139848                __csum_ipv6_magic
 .text          0x00000000c0139888      0x10c arch/arm/lib/lib.a(csumpartial.o)
                0x00000000c0139910                csum_partial
 .text          0x00000000c0139994      0x418 arch/arm/lib/lib.a(csumpartialcopy.o)
                0x00000000c0139a40                csum_partial_copy_nocheck
 .text          0x00000000c0139dac      0x448 arch/arm/lib/lib.a(csumpartialcopyuser.o)
                0x00000000c0139e58                csum_partial_copy_from_user
 .text          0x00000000c013a1f4       0x38 arch/arm/lib/lib.a(delay.o)
                0x00000000c013a1fc                __udelay
                0x00000000c013a204                __const_udelay
                0x00000000c013a220                __delay
 .text          0x00000000c013a22c      0x100 arch/arm/lib/lib.a(div64.o)
                0x00000000c013a22c                __do_div64
 .text          0x00000000c013a32c       0xc4 arch/arm/lib/lib.a(findbit.o)
                0x00000000c013a32c                _find_first_zero_bit_le
                0x00000000c013a358                _find_next_zero_bit_le
                0x00000000c013a384                _find_first_bit_le
                0x00000000c013a3b0                _find_next_bit_le
 .text          0x00000000c013a3f0       0x38 arch/arm/lib/lib.a(getuser.o)
                0x00000000c013a3f0                __get_user_1
                0x00000000c013a3fc                __get_user_2
                0x00000000c013a410                __get_user_4
 .text          0x00000000c013a428      0x180 arch/arm/lib/lib.a(io-readsb.o)
                0x00000000c013a458                __raw_readsb
 .text          0x00000000c013a5a8       0xec arch/arm/lib/lib.a(io-readsl.o)
                0x00000000c013a5a8                __raw_readsl
 .text          0x00000000c013a694      0x114 arch/arm/lib/lib.a(io-readsw-armv4.o)
                0x00000000c013a6a8                __raw_readsw
 .text          0x00000000c013a7a8      0x164 arch/arm/lib/lib.a(io-writesb.o)
                0x00000000c013a7d8                __raw_writesb
 .text          0x00000000c013a90c       0xc0 arch/arm/lib/lib.a(io-writesl.o)
                0x00000000c013a90c                __raw_writesl
 .text          0x00000000c013a9cc       0xf8 arch/arm/lib/lib.a(io-writesw-armv4.o)
                0x00000000c013a9e0                __raw_writesw
 .text          0x00000000c013aac4      0x300 arch/arm/lib/lib.a(lib1funcs.o)
                0x00000000c013aac4                __udivsi3
                0x00000000c013aac4                __aeabi_uidiv
                0x00000000c013ab60                __umodsi3
                0x00000000c013ac00                __divsi3
                0x00000000c013ac00                __aeabi_idiv
                0x00000000c013accc                __modsi3
                0x00000000c013ad84                __aeabi_uidivmod
                0x00000000c013ad9c                __aeabi_idivmod
 .text          0x00000000c013adc4       0x1c arch/arm/lib/lib.a(lshrdi3.o)
                0x00000000c013adc4                __aeabi_llsr
                0x00000000c013adc4                __lshrdi3
 .text          0x00000000c013ade0       0x20 arch/arm/lib/lib.a(memchr.o)
                0x00000000c013ade0                memchr
 .text          0x00000000c013ae00      0x330 arch/arm/lib/lib.a(memcpy.o)
                0x00000000c013ae00                memcpy
 .text          0x00000000c013b130      0x340 arch/arm/lib/lib.a(memmove.o)
                0x00000000c013b130                memmove
 *fill*         0x00000000c013b470       0x10 00
 .text          0x00000000c013b480       0xc0 arch/arm/lib/lib.a(memset.o)
                0x00000000c013b4a0                memset
 .text          0x00000000c013b540       0xa0 arch/arm/lib/lib.a(memzero.o)
                0x00000000c013b560                __memzero
 .text          0x00000000c013b5e0       0x3c arch/arm/lib/lib.a(muldi3.o)
                0x00000000c013b5e0                __muldi3
                0x00000000c013b5e0                __aeabi_lmul
 .text          0x00000000c013b61c       0x44 arch/arm/lib/lib.a(putuser.o)
                0x00000000c013b61c                __put_user_1
                0x00000000c013b628                __put_user_2
                0x00000000c013b63c                __put_user_4
                0x00000000c013b648                __put_user_8
 .text          0x00000000c013b660       0x2c arch/arm/lib/lib.a(setbit.o)
                0x00000000c013b660                _set_bit_be
                0x00000000c013b664                _set_bit_le
 .text          0x00000000c013b68c      0x37c arch/arm/lib/lib.a(sha1.o)
                0x00000000c013b68c                sha_transform
                0x00000000c013b9f4                sha_init
 *fill*         0x00000000c013ba08       0x18 00
 .text          0x00000000c013ba20       0x40 arch/arm/lib/lib.a(strchr.o)
                0x00000000c013ba20                strchr
 .text          0x00000000c013ba60       0x40 arch/arm/lib/lib.a(strncpy_from_user.o)
                0x00000000c013ba60                __strncpy_from_user
 .text          0x00000000c013baa0       0x40 arch/arm/lib/lib.a(strnlen_user.o)
                0x00000000c013baa0                __strnlen_user
 .text          0x00000000c013bae0       0x20 arch/arm/lib/lib.a(strrchr.o)
                0x00000000c013bae0                strrchr
 .text          0x00000000c013bb00       0x38 arch/arm/lib/lib.a(testchangebit.o)
                0x00000000c013bb00                _test_and_change_bit_be
                0x00000000c013bb04                _test_and_change_bit_le
 .text          0x00000000c013bb38       0x38 arch/arm/lib/lib.a(testclearbit.o)
                0x00000000c013bb38                _test_and_clear_bit_be
                0x00000000c013bb3c                _test_and_clear_bit_le
 .text          0x00000000c013bb70       0x38 arch/arm/lib/lib.a(testsetbit.o)
                0x00000000c013bb70                _test_and_set_bit_be
                0x00000000c013bb74                _test_and_set_bit_le
 .text          0x00000000c013bba8       0x30 arch/arm/lib/lib.a(ucmpdi2.o)
                0x00000000c013bba8                __ucmpdi2
                0x00000000c013bbc0                __aeabi_ulcmp
 .text          0x00000000c013bbd8      0x164 lib/lib.a(argv_split.o)
                0x00000000c013bbd8                argv_free
                0x00000000c013bc0c                argv_split
 .text          0x00000000c013bd3c      0x1d8 lib/lib.a(cmdline.o)
                0x00000000c013bd3c                memparse
                0x00000000c013bddc                get_option
                0x00000000c013be5c                get_options
 .text          0x00000000c013bf14        0x0 lib/lib.a(ctype.o)
 .text          0x00000000c013bf14       0x2c lib/lib.a(dec_and_lock.o)
                0x00000000c013bf14                _atomic_dec_and_lock
 .text          0x00000000c013bf40       0xac lib/lib.a(extable.o)
                0x00000000c013bf6c                sort_extable
                0x00000000c013bfa4                search_extable
 .text          0x00000000c013bfec      0xd1c lib/lib.a(idr.o)
                0x00000000c013c080                idr_init
                0x00000000c013c098                ida_init
                0x00000000c013c0bc                idr_destroy
                0x00000000c013c0fc                ida_destroy
                0x00000000c013c140                idr_replace
                0x00000000c013c468                ida_get_new_above
                0x00000000c013c61c                ida_get_new
                0x00000000c013c638                idr_get_new
                0x00000000c013c6ac                idr_get_new_above
                0x00000000c013c720                idr_for_each
                0x00000000c013c7e0                idr_pre_get
                0x00000000c013c84c                idr_remove_all
                0x00000000c013c900                idr_remove
                0x00000000c013cab8                ida_remove
                0x00000000c013cbf0                ida_pre_get
                0x00000000c013cc74                idr_find
 .text          0x00000000c013cd08       0x50 lib/lib.a(int_sqrt.o)
                0x00000000c013cd08                int_sqrt
 .text          0x00000000c013cd58        0x0 lib/lib.a(irq_regs.o)
 .text          0x00000000c013cd58      0xac0 lib/lib.a(kobject.o)
                0x00000000c013cdd4                kobject_init
                0x00000000c013ce6c                kobject_put
                0x00000000c013cec8                kset_unregister
                0x00000000c013cee8                kobject_del
                0x00000000c013cfd4                kobject_get
                0x00000000c013d23c                kobject_init_and_add
                0x00000000c013d27c                kobject_add
                0x00000000c013d2dc                kobject_set_name
                0x00000000c013d354                kobject_get_path
                0x00000000c013d404                kobject_rename
                0x00000000c013d504                kobject_move
                0x00000000c013d604                kobject_create
                0x00000000c013d640                kobject_create_and_add
                0x00000000c013d6a4                kset_init
                0x00000000c013d6ec                kset_register
                0x00000000c013d730                kset_create_and_add
                0x00000000c013d7b0                kset_find_obj
 .text          0x00000000c013d818      0x4c8 lib/lib.a(kobject_uevent.o)
                0x00000000c013d818                add_uevent_var
                0x00000000c013d8cc                kobject_uevent_env
                0x00000000c013dc34                kobject_uevent
                0x00000000c013dc4c                kobject_action_type
 .text          0x00000000c013dce0       0xf8 lib/lib.a(kref.o)
                0x00000000c013dce0                kref_set
                0x00000000c013dd00                kref_init
                0x00000000c013dd18                kref_put
                0x00000000c013dd94                kref_get
 .text          0x00000000c013ddd8      0x170 lib/lib.a(prio_heap.o)
                0x00000000c013ddd8                heap_init
                0x00000000c013de20                heap_free
                0x00000000c013de38                heap_insert
 .text          0x00000000c013df48      0x7ec lib/lib.a(prio_tree.o)
                0x00000000c013e1ec                prio_tree_replace
                0x00000000c013e27c                prio_tree_remove
                0x00000000c013e370                prio_tree_insert
                0x00000000c013e5b4                prio_tree_next
 .text          0x00000000c013e734      0x490 lib/lib.a(proportions.o)
                0x00000000c013e874                prop_descriptor_init
                0x00000000c013e8c8                prop_change_shift
                0x00000000c013e964                prop_local_init_percpu
                0x00000000c013e990                prop_local_destroy_percpu
                0x00000000c013e9a0                __prop_inc_percpu
                0x00000000c013e9f0                __prop_inc_percpu_max
                0x00000000c013ea84                prop_fraction_percpu
                0x00000000c013eae4                prop_local_init_single
                0x00000000c013eb08                prop_local_destroy_single
                0x00000000c013eb18                __prop_inc_single
                0x00000000c013eb64                prop_fraction_single
 .text          0x00000000c013ebc4      0xf0c lib/lib.a(radix-tree.o)
                0x00000000c013ebc4                radix_tree_lookup_slot
                0x00000000c013ec60                radix_tree_lookup
                0x00000000c013ece4                radix_tree_tag_clear
                0x00000000c013ee58                radix_tree_next_hole
                0x00000000c013efa8                radix_tree_gang_lookup
                0x00000000c013f084                radix_tree_gang_lookup_slot
                0x00000000c013f288                radix_tree_tagged
                0x00000000c013f2c0                radix_tree_tag_set
                0x00000000c013f3a8                radix_tree_delete
                0x00000000c013f634                radix_tree_preload
                0x00000000c013f6a4                radix_tree_gang_lookup_tag
                0x00000000c013f798                radix_tree_gang_lookup_tag_slot
                0x00000000c013f8cc                radix_tree_insert
 .text          0x00000000c013fad0       0xd4 lib/lib.a(ratelimit.o)
                0x00000000c013fad0                __ratelimit
 .text          0x00000000c013fba4      0x72c lib/lib.a(rbtree.o)
                0x00000000c013fc98                rb_insert_color
                0x00000000c013fdcc                rb_erase
                0x00000000c014012c                rb_first
                0x00000000c014015c                rb_last
                0x00000000c014018c                rb_replace_node
                0x00000000c01401f8                rb_next
                0x00000000c0140264                rb_prev
 .text          0x00000000c01402d0       0x38 lib/lib.a(reciprocal_div.o)
                0x00000000c01402d0                reciprocal_value
 .text          0x00000000c0140308      0x354 lib/lib.a(rwsem-spinlock.o)
                0x00000000c0140308                __init_rwsem
                0x00000000c014032c                __down_read_trylock
                0x00000000c0140374                __down_write_trylock
                0x00000000c01403bc                __up_read
                0x00000000c014045c                __up_write
                0x00000000c0140588                __downgrade_write
 .text          0x00000000c014065c      0x73c lib/lib.a(string.o)
                0x00000000c014065c                strnicmp
                0x00000000c01406dc                strcasecmp
                0x00000000c0140740                strncasecmp
                0x00000000c01407ac                strcpy
                0x00000000c01407d0                strncpy
                0x00000000c0140804                strcat
                0x00000000c014083c                strcmp
                0x00000000c0140870                strncmp
                0x00000000c01408bc                strnchr
                0x00000000c014090c                strlen
                0x00000000c0140938                strnlen
                0x00000000c0140970                strspn
                0x00000000c01409b8                strcspn
                0x00000000c01409fc                strpbrk
                0x00000000c0140a40                strsep
                0x00000000c0140a7c                sysfs_streq
                0x00000000c0140b10                memcmp
                0x00000000c0140b4c                memscan
                0x00000000c0140b84                strstr
                0x00000000c0140bec                strlcpy
                0x00000000c0140c44                strncat
                0x00000000c0140ca0                strstrip
                0x00000000c0140d20                strlcat
 .text          0x00000000c0140d98     0x17dc lib/lib.a(vsprintf.o)
                0x00000000c0140d98                simple_strtoul
                0x00000000c0140e64                simple_strtoull
                0x00000000c0141824                vsnprintf
                0x00000000c0141d38                sprintf
                0x00000000c0141d68                vsprintf
                0x00000000c0141d8c                scnprintf
                0x00000000c0141dc4                snprintf
                0x00000000c0141df0                vscnprintf
                0x00000000c0141e10                strict_strtoull
                0x00000000c0141e9c                strict_strtoul
                0x00000000c0141f24                simple_strtol
                0x00000000c0141f54                strict_strtoll
                0x00000000c0141f9c                strict_strtol
                0x00000000c0141fdc                simple_strtoll
                0x00000000c0142020                vsscanf
                0x00000000c0142548                sscanf
 .text          0x00000000c0142574     0x4130 lib/built-in.o
                0x00000000c0142574                bcd2bin
                0x00000000c0142594                bin2bcd
                0x00000000c01425c8                __div64_32
                0x00000000c01426c0                iter_div_u64_rem
                0x00000000c0142704                div_s64_rem
                0x00000000c0142778                div64_u64
                0x00000000c0142834                sort
                0x00000000c01429c0                match_strlcpy
                0x00000000c0142a08                match_strdup
                0x00000000c0142ae4                match_hex
                0x00000000c0142afc                match_octal
                0x00000000c0142b14                match_int
                0x00000000c0142b2c                match_token
                0x00000000c0142d10                half_md4_transform
                0x00000000c0143054                debug_locks_off
                0x00000000c01430cc                srandom32
                0x00000000c0143160                random32
                0x00000000c0143174                bust_spinlocks
                0x00000000c01431c0                hex_dump_to_buffer
                0x00000000c0143470                print_hex_dump
                0x00000000c0143584                print_hex_dump_bytes
                0x00000000c01435c8                kvasprintf
                0x00000000c0143630                kasprintf
                0x00000000c014365c                __bitmap_empty
                0x00000000c01436e8                __bitmap_full
                0x00000000c0143770                __bitmap_equal
                0x00000000c0143808                __bitmap_complement
                0x00000000c0143884                __bitmap_and
                0x00000000c01438c8                __bitmap_or
                0x00000000c014390c                __bitmap_xor
                0x00000000c0143950                __bitmap_andnot
                0x00000000c0143994                __bitmap_intersects
                0x00000000c0143a28                __bitmap_subset
                0x00000000c0143bbc                bitmap_find_free_region
                0x00000000c0143c34                bitmap_release_region
                0x00000000c0143c4c                bitmap_allocate_region
                0x00000000c0143c98                bitmap_copy_le
                0x00000000c0143cdc                bitmap_fold
                0x00000000c0143d5c                bitmap_onto
                0x00000000c0143e00                __bitmap_shift_left
                0x00000000c0143f10                __bitmap_parse
                0x00000000c01440e0                bitmap_parse_user
                0x00000000c0144134                __bitmap_shift_right
                0x00000000c0144268                __bitmap_weight
                0x00000000c01442f0                bitmap_parselist
                0x00000000c01443fc                bitmap_scnprintf
                0x00000000c0144534                bitmap_scnlistprintf
                0x00000000c01446bc                bitmap_bitremap
                0x00000000c0144744                bitmap_remap
                0x00000000c014481c                sg_last
                0x00000000c0144834                __sg_free_table
                0x00000000c01448a8                sg_free_table
                0x00000000c01448c8                sg_next
                0x00000000c01448fc                sg_miter_stop
                0x00000000c01449a0                sg_miter_start
                0x00000000c01449dc                sg_init_table
                0x00000000c0144a6c                __sg_alloc_table
                0x00000000c0144b60                sg_miter_next
                0x00000000c0144d1c                sg_copy_to_buffer
                0x00000000c0144d40                sg_copy_from_buffer
                0x00000000c0144d64                sg_init_one
                0x00000000c0144dd8                sg_alloc_table
                0x00000000c0144e2c                string_get_size
                0x00000000c0144fec                __iowrite32_copy
                0x00000000c0145014                __iowrite64_copy
                0x00000000c0145084                devm_ioport_map
                0x00000000c01450f4                devm_ioremap_release
                0x00000000c014510c                devm_ioremap_nocache
                0x00000000c0145180                devm_ioremap
                0x00000000c01451f4                devm_ioport_unmap
                0x00000000c014524c                devm_iounmap
                0x00000000c01452a4                hweight32
                0x00000000c01452f4                hweight16
                0x00000000c0145334                hweight8
                0x00000000c0145368                hweight64
                0x00000000c0145394                plist_add
                0x00000000c014543c                plist_del
                0x00000000c01454b8                bitrev16
                0x00000000c01454e0                bitrev32
                0x00000000c014550c                crc32_be
                0x00000000c0145618                crc32_le
                0x00000000c014571c                crc32c
                0x00000000c014578c                textsearch_unregister
                0x00000000c01457f8                textsearch_find_continuous
                0x00000000c0145858                textsearch_destroy
                0x00000000c0145890                textsearch_register
                0x00000000c0145980                textsearch_prepare
 .text          0x00000000c01466a4    0x5e704 drivers/built-in.o
                0x00000000c01466a4                fb_notifier_call_chain
                0x00000000c01466cc                fb_unregister_client
                0x00000000c01466ec                fb_register_client
                0x00000000c014670c                fb_get_color_depth
                0x00000000c0146778                fb_pad_aligned_buffer
                0x00000000c01467bc                fb_pad_unaligned_buffer
                0x00000000c0146880                fb_get_buffer_offset
                0x00000000c0146920                fb_show_logo
                0x00000000c01469a0                fb_pan_display
                0x00000000c0146d4c                fb_set_suspend
                0x00000000c0146da0                fb_blank
                0x00000000c01472a4                fb_get_options
                0x00000000c01473ac                unregister_framebuffer
                0x00000000c0147464                register_framebuffer
                0x00000000c0147620                fb_set_var
                0x00000000c0147e9c                fb_prepare_logo
                0x00000000c0147eb0                fb_new_modelist
                0x00000000c0148154                fb_validate_mode
                0x00000000c01482f8                fb_firmware_edid
                0x00000000c014830c                fb_destroy_modedb
                0x00000000c0148414                fb_get_mode
                0x00000000c0149490                fb_parse_edid
                0x00000000c0149688                fb_edid_to_monspecs
                0x00000000c0149cfc                fb_invert_cmaps
                0x00000000c0149e24                fb_copy_cmap
                0x00000000c0149f04                fb_set_cmap
                0x00000000c014a000                fb_dealloc_cmap
                0x00000000c014a04c                fb_default_cmap
                0x00000000c014a098                fb_alloc_cmap
                0x00000000c014a174                fb_cmap_to_user
                0x00000000c014a2e8                fb_set_user_cmap
                0x00000000c014ac5c                framebuffer_release
                0x00000000c014ac70                framebuffer_alloc
                0x00000000c014acb8                fb_init_device
                0x00000000c014ad48                fb_cleanup_device
                0x00000000c014ae8c                fb_videomode_to_var
                0x00000000c014af10                fb_mode_is_equal
                0x00000000c014afe4                fb_find_best_mode
                0x00000000c014b084                fb_find_nearest_mode
                0x00000000c014b124                fb_find_best_display
                0x00000000c014b22c                fb_destroy_modelist
                0x00000000c014b284                fb_find_mode
                0x00000000c014b8a0                fb_var_to_videomode
                0x00000000c014b9a0                fb_match_mode
                0x00000000c014ba0c                fb_add_videomode
                0x00000000c014bab4                fb_videomode_to_modelist
                0x00000000c014bb04                fb_delete_videomode
                0x00000000c014bb78                fb_find_mode_cvt
                0x00000000c014c2c0                cfb_fillrect
                0x00000000c014cac8                cfb_copyarea
                0x00000000c014d2c4                cfb_imageblit
                0x00000000c014e45c                unxlate_dev_mem_ptr
                0x00000000c014e684                phys_mem_access_prot_allowed
                0x00000000c014e698                map_devmem
                0x00000000c014e6d0                unmap_devmem
                0x00000000c014f220                secure_tcpv6_sequence_number
                0x00000000c014f2c4                secure_ipv4_port_ephemeral
                0x00000000c014f618                add_input_randomness
                0x00000000c014f7c0                get_random_bytes
                0x00000000c014f854                generate_random_uuid
                0x00000000c014fd10                add_interrupt_randomness
                0x00000000c014fd44                add_disk_randomness
                0x00000000c014fd74                rand_initialize_irq
                0x00000000c014fdb8                rand_initialize_disk
                0x00000000c014fde8                secure_ip_id
                0x00000000c014fe40                secure_tcp_sequence_number
                0x00000000c014fecc                secure_ipv6_port_ephemeral
                0x00000000c014ff38                get_random_int
                0x00000000c014ff70                randomize_range
                0x00000000c0150040                tty_hung_up_p
                0x00000000c0150068                tty_get_pgrp
                0x00000000c01500a4                tty_put_char
                0x00000000c01500ec                tty_set_operations
                0x00000000c0150100                tty_devnum
                0x00000000c0150128                get_current_tty
                0x00000000c015020c                tty_free_termios
                0x00000000c0150244                tty_shutdown
                0x00000000c0150288                tty_unregister_driver
                0x00000000c01502f4                tty_driver_kref_put
                0x00000000c0150314                put_tty_driver
                0x00000000c0150328                tty_kref_put
                0x00000000c0150430                alloc_tty_driver
                0x00000000c0150478                tty_unregister_device
                0x00000000c0150548                tty_register_device
                0x00000000c015062c                tty_register_driver
                0x00000000c01507d8                stop_tty
                0x00000000c015086c                tty_wakeup
                0x00000000c01508cc                start_tty
                0x00000000c015096c                do_SAK
                0x00000000c015098c                tty_hangup
                0x00000000c01509a4                tty_ldisc_flush
                0x00000000c01509ec                tty_check_change
                0x00000000c0150ad8                tty_name
                0x00000000c0150b08                alloc_tty_struct
                0x00000000c0150b2c                free_tty_struct
                0x00000000c0150bc8                tty_paranoia_check
                0x00000000c01510b4                tty_vhangup
                0x00000000c0151220                tty_vhangup_self
                0x00000000c015124c                tty_write_unlock
                0x00000000c015127c                tty_write_lock
                0x00000000c015150c                redirected_tty_write
                0x00000000c0151654                tty_write_message
                0x00000000c01516b4                tty_init_termios
                0x00000000c015174c                tty_do_resize
                0x00000000c01517f0                __do_SAK
                0x00000000c0151974                initialize_tty_struct
                0x00000000c0151ac8                tty_init_dev
                0x00000000c0151c20                proc_clear_tty
                0x00000000c0151c88                tty_release_dev
                0x00000000c01524b8                disassociate_ctty
                0x00000000c0152644                no_tty
                0x00000000c0152684                tty_ioctl
                0x00000000c0152e80                tty_default_fops
                0x00000000c01550e0                is_ignored
                0x00000000c0155750                tty_chars_in_buffer
                0x00000000c015577c                tty_driver_flush_buffer
                0x00000000c01557a0                tty_termios_baud_rate
                0x00000000c01557ec                tty_termios_input_baud_rate
                0x00000000c0155850                tty_termios_encode_baud_rate
                0x00000000c01559d4                tty_encode_baud_rate
                0x00000000c01559ec                tty_termios_copy_hw
                0x00000000c0155ac8                tty_wait_until_sent
                0x00000000c0155bc4                tty_write_room
                0x00000000c0155bf0                tty_throttle
                0x00000000c0155c34                tty_unthrottle
                0x00000000c0155c78                tty_termios_hw_change
                0x00000000c0155ccc                tty_perform_flush
                0x00000000c0155d7c                tty_get_baud_rate
                0x00000000c01561f4                tty_mode_ioctl
                0x00000000c0156614                n_tty_ioctl_helper
                0x00000000c0156780                tty_register_ldisc
                0x00000000c01567cc                tty_unregister_ldisc
                0x00000000c015692c                tty_ldisc_ref
                0x00000000c01569bc                tty_ldisc_ref_wait
                0x00000000c0156b44                tty_ldisc_deref
                0x00000000c0156bb8                tty_ldisc_enable
                0x00000000c0156c10                tty_set_ldisc
                0x00000000c0157088                tty_ldisc_setup
                0x00000000c0157118                tty_ldisc_release
                0x00000000c0157334                tty_ldisc_init
                0x00000000c0157388                tty_ldisc_begin
                0x00000000c01573a8                tty_schedule_flip
                0x00000000c0157608                tty_buffer_request_room
                0x00000000c015772c                tty_prepare_flip_string_flags
                0x00000000c0157788                tty_prepare_flip_string
                0x00000000c01577e8                tty_insert_flip_string_flags
                0x00000000c0157878                tty_insert_flip_string
                0x00000000c01578fc                tty_flip_buffer_push
                0x00000000c0157950                tty_buffer_free_all
                0x00000000c01579a4                tty_buffer_flush
                0x00000000c0157a7c                tty_buffer_init
                0x00000000c0157ac4                tty_port_carrier_raised
                0x00000000c0157af0                tty_port_raise_dtr_rts
                0x00000000c0157b14                tty_port_close_end
                0x00000000c0157bb0                tty_port_close_start
                0x00000000c0157cc8                tty_port_block_til_ready
                0x00000000c0157ee0                tty_port_hangup
                0x00000000c0157f3c                tty_port_tty_get
                0x00000000c0157f70                tty_port_tty_set
                0x00000000c0157fb8                tty_port_free_xmit_buf
                0x00000000c0157ffc                tty_port_alloc_xmit_buf
                0x00000000c015804c                tty_port_init
                0x00000000c015870c                pty_resize
                0x00000000c0158ae8                misc_deregister
                0x00000000c0158b98                misc_register
                0x00000000c0158ce4                vt_waitactive
                0x00000000c0158dc0                reset_vc
                0x00000000c0158f3c                vt_ioctl
                0x00000000c015ac94                vc_SAK
                0x00000000c015acd4                change_console
                0x00000000c015b730                vcs_make_sysfs
                0x00000000c015b7b0                vcs_remove_sysfs
                0x00000000c015b82c                clear_selection
                0x00000000c015b888                sel_loadlut
                0x00000000c015b8e8                set_selection
                0x00000000c015bf3c                paste_selection
                0x00000000c015c7dc                kd_mksound
                0x00000000c015c8a8                unregister_keyboard_notifier
                0x00000000c015c8c8                register_keyboard_notifier
                0x00000000c015d4bc                getkeycode
                0x00000000c015d528                setkeycode
                0x00000000c015d58c                kbd_rate
                0x00000000c015d628                compute_shiftstate
                0x00000000c015ddb4                getledstate
                0x00000000c015ddd0                setledstate
                0x00000000c015e0e0                inverse_translate
                0x00000000c015e234                set_translate
                0x00000000c015e264                con_get_trans_new
                0x00000000c015e2e0                con_free_unimap
                0x00000000c015e32c                con_copy_unimap
                0x00000000c015e394                con_clear_unimap
                0x00000000c015e460                con_get_unimap
                0x00000000c015e58c                con_protect_unimap
                0x00000000c015e5ac                conv_8bit_to_uni
                0x00000000c015e5dc                conv_uni_to_8bit
                0x00000000c015e628                conv_uni_to_pc
                0x00000000c015e778                con_set_default_unimap
                0x00000000c015e8f0                con_set_unimap
                0x00000000c015eb88                con_set_trans_new
                0x00000000c015ec08                con_set_trans_old
                0x00000000c015ec88                con_get_trans_old
                0x00000000c015f384                con_is_bound
                0x00000000c015f3c4                screen_glyph
                0x00000000c015f530                register_con_driver
                0x00000000c015f968                do_blank_screen
                0x00000000c015fbb8                unregister_con_driver
                0x00000000c015fc94                give_up_console
                0x00000000c015fd88                unregister_vt_notifier
                0x00000000c015fda8                register_vt_notifier
                0x00000000c016051c                redraw_screen
                0x00000000c0160714                take_over_console
                0x00000000c0160d40                vc_resize
                0x00000000c0160d6c                update_region
                0x00000000c0160e4c                schedule_console_callback
                0x00000000c0160e68                invert_screen
                0x00000000c01611f4                complement_pos
                0x00000000c0161394                vc_cons_allocated
                0x00000000c0161808                do_unblank_screen
                0x00000000c0161938                unblank_screen
                0x00000000c0161a48                vc_allocate
                0x00000000c0161c88                vc_deallocate
                0x00000000c0161d68                scrollback
                0x00000000c0161d9c                scrollfront
                0x00000000c0161dd0                mouse_report
                0x00000000c0161e24                mouse_reporting
                0x00000000c0161e54                set_console
                0x00000000c0161edc                tioclinux
                0x00000000c01620e0                poke_blanked_console
                0x00000000c01622c8                con_set_cmap
                0x00000000c01622f8                con_get_cmap
                0x00000000c0162328                reset_palette
                0x00000000c01640f0                con_font_op
                0x00000000c016456c                screen_pos
                0x00000000c01645b0                getconsxy
                0x00000000c01645d0                putconsxy
                0x00000000c0164604                vcs_scr_readw
                0x00000000c016463c                vcs_scr_writew
                0x00000000c01648e8                sysrq_on
                0x00000000c0164928                __sysrq_get_key_op
                0x00000000c01649e8                unregister_sysrq_key
                0x00000000c0164a04                register_sysrq_key
                0x00000000c0164a1c                __handle_sysrq
                0x00000000c0164ba4                handle_sysrq
                0x00000000c0164c04                hwrng_unregister
                0x00000000c0165074                hwrng_register
                0x00000000c0165498                cn_queue_wrapper
                0x00000000c01654d4                cn_cb_equal
                0x00000000c0165510                cn_queue_add_callback
                0x00000000c0165668                cn_queue_del_callback
                0x00000000c0165718                cn_queue_alloc_dev
                0x00000000c01657cc                cn_queue_free_dev
                0x00000000c0165914                cn_netlink_send
                0x00000000c0165bcc                cn_del_callback
                0x00000000c0165c00                cn_add_callback
                0x00000000c01660f0                proc_fork_connector
                0x00000000c01661f4                proc_exec_connector
                0x00000000c01662e4                proc_id_connector
                0x00000000c0166400                proc_exit_connector
                0x00000000c01665e8                put_device
                0x00000000c0166620                get_device
                0x00000000c01667e4                device_move
                0x00000000c0166974                device_rename
                0x00000000c0166b70                device_find_child
                0x00000000c0166bf4                device_for_each_child
                0x00000000c0166eac                dev_set_name
                0x00000000c0166f04                device_initialize
                0x00000000c0166f90                device_schedule_callback_owner
                0x00000000c0166fb4                device_remove_bin_file
                0x00000000c0166fd4                device_create_bin_file
                0x00000000c0166ffc                device_remove_file
                0x00000000c0167084                device_del
                0x00000000c01671f4                device_unregister
                0x00000000c0167214                device_destroy
                0x00000000c0167258                root_device_unregister
                0x00000000c0167290                device_create_file
                0x00000000c01672b0                device_add
                0x00000000c016772c                device_register
                0x00000000c016774c                device_create_vargs
                0x00000000c0167800                device_create
                0x00000000c0167830                __root_device_register
                0x00000000c01678ac                dev_driver_string
                0x00000000c0167a4c                device_shutdown
                0x00000000c0167bfc                sysdev_resume
                0x00000000c0167c74                sysdev_show_int
                0x00000000c0167ca0                sysdev_show_ulong
                0x00000000c0167ccc                sysdev_store_int
                0x00000000c0167d18                sysdev_store_ulong
                0x00000000c0167d64                sysdev_suspend
                0x00000000c0167f48                sysdev_driver_unregister
                0x00000000c0167fd8                sysdev_unregister
                0x00000000c0168044                sysdev_register
                0x00000000c0168110                sysdev_driver_register
                0x00000000c016822c                sysdev_class_unregister
                0x00000000c0168244                sysdev_class_register
                0x00000000c01682ac                sysdev_class_remove_file
                0x00000000c01682c4                sysdev_remove_file
                0x00000000c01682dc                sysdev_class_create_file
                0x00000000c01682f4                sysdev_create_file
                0x00000000c016830c                sysdev_shutdown
                0x00000000c01684f8                bus_get_kset
                0x00000000c016850c                bus_get_device_klist
                0x00000000c0168524                bus_sort_breadthfirst
                0x00000000c0168604                bus_unregister_notifier
                0x00000000c0168620                bus_register_notifier
                0x00000000c016879c                device_reprobe
                0x00000000c016884c                bus_for_each_drv
                0x00000000c01688e0                bus_find_device
                0x00000000c0168974                bus_find_device_by_name
                0x00000000c0168b28                bus_for_each_dev
                0x00000000c0168bb0                bus_rescan_devices
                0x00000000c0168bf4                bus_remove_file
                0x00000000c0168c30                bus_unregister
                0x00000000c0168cd0                bus_create_file
                0x00000000c0168d18                bus_register
                0x00000000c0168f64                bus_add_device
                0x00000000c01690a0                bus_attach_device
                0x00000000c0169104                bus_remove_device
                0x00000000c01691b0                bus_add_driver
                0x00000000c01693bc                bus_remove_driver
                0x00000000c0169510                device_release_driver
                0x00000000c0169540                driver_attach
                0x00000000c01695e0                device_bind_driver
                0x00000000c0169654                device_attach
                0x00000000c01696cc                driver_probe_done
                0x00000000c01696f0                wait_for_device_probe
                0x00000000c0169720                driver_probe_device
                0x00000000c0169994                driver_detach
                0x00000000c0169a24                driver_find
                0x00000000c0169a50                driver_unregister
                0x00000000c0169a90                put_driver
                0x00000000c0169aa8                driver_register
                0x00000000c0169bc8                get_driver
                0x00000000c0169bec                driver_add_kobj
                0x00000000c0169c58                driver_remove_file
                0x00000000c0169c78                driver_create_file
                0x00000000c0169ca0                driver_find_device
                0x00000000c0169d34                driver_for_each_device
                0x00000000c0169e5c                class_dev_iter_exit
                0x00000000c0169e70                class_dev_iter_next
                0x00000000c0169eb8                class_dev_iter_init
                0x00000000c0169eec                class_interface_unregister
                0x00000000c0169f98                class_interface_register
                0x00000000c016a090                class_remove_file
                0x00000000c016a0b4                class_unregister
                0x00000000c016a104                class_destroy
                0x00000000c016a128                class_create_file
                0x00000000c016a154                __class_register
                0x00000000c016a2e0                __class_create
                0x00000000c016a354                class_find_device
                0x00000000c016a410                class_for_each_device
                0x00000000c016a4c0                platform_get_resource
                0x00000000c016a51c                platform_get_irq
                0x00000000c016a878                platform_get_resource_byname
                0x00000000c016a8e8                platform_get_irq_byname
                0x00000000c016a910                dma_get_required_mask
                0x00000000c016a988                platform_driver_unregister
                0x00000000c016a9a0                platform_driver_register
                0x00000000c016aa28                platform_driver_probe
                0x00000000c016aa90                platform_device_del
                0x00000000c016aaf0                platform_device_add
                0x00000000c016ac40                platform_device_register
                0x00000000c016ac64                platform_device_add_data
                0x00000000c016acb0                platform_device_add_resources
                0x00000000c016ad08                platform_device_alloc
                0x00000000c016ad90                platform_device_put
                0x00000000c016adb0                platform_device_register_simple
                0x00000000c016ae18                platform_device_unregister
                0x00000000c016ae38                platform_add_devices
                0x00000000c016aea4                platform_device_register_data
                0x00000000c016af1c                get_cpu_sysdev
                0x00000000c016b100                kobj_map
                0x00000000c016b20c                kobj_unmap
                0x00000000c016b2c4                kobj_lookup
                0x00000000c016b3c8                kobj_map_init
                0x00000000c016b4fc                devres_find
                0x00000000c016b524                devres_remove
                0x00000000c016b600                devres_alloc
                0x00000000c016b654                devres_remove_group
                0x00000000c016b89c                devres_release_group
                0x00000000c016b948                devres_close_group
                0x00000000c016b994                devres_open_group
                0x00000000c016ba24                devres_add
                0x00000000c016ba48                devm_kzalloc
                0x00000000c016baac                devres_free
                0x00000000c016bae8                devres_destroy
                0x00000000c016bb14                devres_get
                0x00000000c016bb68                devm_kfree
                0x00000000c016bbac                devres_release_all
                0x00000000c016bbd0                attribute_container_classdev_to_container
                0x00000000c016bbe4                attribute_container_find_class_device
                0x00000000c016bc48                attribute_container_unregister
                0x00000000c016bcfc                attribute_container_register
                0x00000000c016bd60                attribute_container_device_trigger
                0x00000000c016be38                attribute_container_trigger
                0x00000000c016bea8                attribute_container_add_attrs
                0x00000000c016bf2c                attribute_container_add_class_device
                0x00000000c016bf54                attribute_container_add_device
                0x00000000c016c070                attribute_container_add_class_device_adapter
                0x00000000c016c088                attribute_container_remove_attrs
                0x00000000c016c0e0                attribute_container_remove_device
                0x00000000c016c1c8                attribute_container_class_device_del
                0x00000000c016c24c                transport_destroy_device
                0x00000000c016c298                transport_remove_device
                0x00000000c016c2b4                transport_configure_device
                0x00000000c016c2d0                transport_add_device
                0x00000000c016c34c                transport_setup_device
                0x00000000c016c368                anon_transport_class_register
                0x00000000c016c3a8                transport_class_unregister
                0x00000000c016c3bc                transport_class_register
                0x00000000c016c414                anon_transport_class_unregister
                0x00000000c016c53c                dpm_sysfs_add
                0x00000000c016c55c                dpm_sysfs_remove
                0x00000000c016c69c                __suspend_report_result
                0x00000000c016c874                device_power_up
                0x00000000c016c888                device_power_down
                0x00000000c016c9b0                device_suspend
                0x00000000c016ce38                device_resume
                0x00000000c016d17c                device_pm_lock
                0x00000000c016d198                device_pm_unlock
                0x00000000c016d1b4                device_pm_add
                0x00000000c016d274                device_pm_remove
                0x00000000c016d2e0                dmam_declare_coherent_memory
                0x00000000c016d368                dmam_alloc_noncoherent
                0x00000000c016d3b4                dmam_alloc_coherent
                0x00000000c016d43c                dmam_release_declared_memory
                0x00000000c016d47c                dmam_free_noncoherent
                0x00000000c016d534                dmam_free_coherent
                0x00000000c016d6b4                request_firmware_nowait
                0x00000000c016d798                release_firmware
                0x00000000c016df00                request_firmware
                0x00000000c016e004                module_add_driver
                0x00000000c016e0b4                module_remove_driver
                0x00000000c016e9d4                loop_register_transfer
                0x00000000c016ea4c                loop_unregister_transfer
                0x00000000c0172444                is_pmem_file
                0x00000000c0172544                get_pmem_user_addr
                0x00000000c01725d0                get_pmem_addr
                0x00000000c01726d4                get_pmem_file
                0x00000000c017274c                put_pmem_file
                0x00000000c01727e8                flush_pmem_file
                0x00000000c0172908                pmem_remap
                0x00000000c0172f48                pmem_setup
                0x00000000c01737a0                qemu_trace_cs
                0x00000000c01737dc                qemu_trace_munmap
                0x00000000c0173818                qemu_trace_exit
                0x00000000c0173850                qemu_trace_thread_name
                0x00000000c0173888                qemu_trace_process_name
                0x00000000c0173958                qemu_trace_fork
                0x00000000c01739e8                qemu_trace_mmap
                0x00000000c0173b90                qemu_trace_execve
                0x00000000c0173cbc                qemu_trace_start
                0x00000000c0173cf8                qemu_trace_stop
                0x00000000c0173d34                qemu_trace_get_tracing
                0x00000000c0173d58                qemu_trace_add_mapping
                0x00000000c0173d94                qemu_trace_remove_mapping
                0x00000000c0174684                mii_ethtool_gset
                0x00000000c01748d8                mii_ethtool_sset
                0x00000000c0174b28                mii_check_gmii_support
                0x00000000c0174b78                mii_link_ok
                0x00000000c0174bb8                mii_nway_restart
                0x00000000c0174c10                generic_mii_ioctl
                0x00000000c0174d84                mii_check_link
                0x00000000c0174de8                mii_check_media
                0x00000000c0178a44                default_mtd_writev
                0x00000000c0178afc                get_mtd_device
                0x00000000c0178be0                unregister_mtd_user
                0x00000000c0178c60                register_mtd_user
                0x00000000c0178ddc                get_mtd_device_nm
                0x00000000c0178e9c                del_mtd_device
                0x00000000c0178f50                add_mtd_device
                0x00000000c0179114                put_mtd_device
                0x00000000c01791b4                kill_mtd_super
                0x00000000c017929c                get_sb_mtd
                0x00000000c017a714                deregister_mtd_blktrans
                0x00000000c017a808                register_mtd_blktrans
                0x00000000c017ac04                add_mtd_blktrans_dev
                0x00000000c017aec8                del_mtd_blktrans_dev
                0x00000000c017b5c8                register_mtd_chip_driver
                0x00000000c017b5f8                unregister_mtd_chip_driver
                0x00000000c017b630                map_destroy
                0x00000000c017b6e0                do_map_probe
                0x00000000c017c330                serio_open
                0x00000000c017c384                serio_close
                0x00000000c017c998                serio_unregister_child_port
                0x00000000c017c9d8                serio_unregister_port
                0x00000000c017cb44                serio_reconnect
                0x00000000c017cb60                serio_rescan
                0x00000000c017cb7c                serio_interrupt
                0x00000000c017cbd8                serio_unregister_driver
                0x00000000c017cc6c                __serio_register_port
                0x00000000c017d38c                __serio_register_driver
                0x00000000c017d41c                ps2_cmd_aborted
                0x00000000c017d468                ps2_init
                0x00000000c017d4a4                ps2_sendbyte
                0x00000000c017d5ac                ps2_drain
                0x00000000c017d6ac                ps2_is_keyboard_id
                0x00000000c017d6d8                ps2_command
                0x00000000c017da28                ps2_handle_response
                0x00000000c017dab8                ps2_handle_ack
                0x00000000c017dc14                input_get_keycode
                0x00000000c017e124                input_flush_device
                0x00000000c017e4b8                input_unregister_handle
                0x00000000c017e524                input_register_handle
                0x00000000c017e638                input_release_device
                0x00000000c017e670                input_close_device
                0x00000000c017e6e8                input_open_device
                0x00000000c017e794                input_grab_device
                0x00000000c017e7e8                input_register_handler
                0x00000000c017e8d4                input_unregister_handler
                0x00000000c017e9b8                input_register_device
                0x00000000c017ec6c                input_set_capability
                0x00000000c017ee40                input_free_device
                0x00000000c017f8e8                input_allocate_device
                0x00000000c017fa04                input_set_keycode
                0x00000000c017fb34                input_unregister_device
                0x00000000c01801c8                input_inject_event
                0x00000000c0180218                input_event
                0x00000000c0180280                input_event_from_user
                0x00000000c01802e0                input_ff_effect_from_user
                0x00000000c0180350                input_event_to_user
                0x00000000c0180458                input_ff_event
                0x00000000c0180504                input_ff_destroy
                0x00000000c0180568                input_ff_create
                0x00000000c018070c                input_ff_erase
                0x00000000c0180768                input_ff_upload
                0x00000000c0184c38                rtc_month_days
                0x00000000c0184ca0                rtc_year_days
                0x00000000c0184d10                rtc_time_to_tm
                0x00000000c0184e68                rtc_valid_tm
                0x00000000c0184eec                rtc_tm_to_time
                0x00000000c0184f44                rtc_device_unregister
                0x00000000c0184fec                rtc_device_register
                0x00000000c0185340                rtc_irq_register
                0x00000000c01853c8                rtc_irq_unregister
                0x00000000c01853f0                rtc_irq_set_state
                0x00000000c0185468                rtc_irq_set_freq
                0x00000000c01854ec                rtc_class_close
                0x00000000c0185500                rtc_class_open
                0x00000000c0185580                rtc_update_irq
                0x00000000c01855e4                rtc_update_irq_enable
                0x00000000c018564c                rtc_alarm_irq_enable
                0x00000000c01856b4                rtc_set_alarm
                0x00000000c018572c                rtc_set_time
                0x00000000c01857dc                rtc_set_mmss
                0x00000000c01858c8                rtc_read_time
                0x00000000c0185944                rtc_read_alarm
                0x00000000c0186460                alarm_resume
                0x00000000c01864c0                alarm_suspend
                0x00000000c0186e9c                rtc_dev_prepare
                0x00000000c0186ef8                rtc_dev_add_device
                0x00000000c0186f48                rtc_dev_del_device
                0x00000000c01871e0                rtc_proc_add_device
                0x00000000c0187230                rtc_proc_del_device
                0x00000000c0187510                rtc_sysfs_add_device
                0x00000000c018757c                rtc_sysfs_del_device
                0x00000000c01877c4                power_supply_unregister
                0x00000000c01877ec                power_supply_is_system_supplied
                0x00000000c018781c                power_supply_am_i_supplied
                0x00000000c0187974                power_supply_changed
                0x00000000c018798c                power_supply_register
                0x00000000c0187be8                power_supply_create_attrs
                0x00000000c0187cc4                power_supply_remove_attrs
                0x00000000c0187d20                power_supply_uevent
                0x00000000c01881bc                dm_get_mapinfo
                0x00000000c018820c                dm_device_name
                0x00000000c01886b4                dm_open_count
                0x00000000c01886c8                dm_lock_for_deletion
                0x00000000c0188708                dm_get_table
                0x00000000c0188eec                dm_put
                0x00000000c018907c                dm_noflush_suspending
                0x00000000c0189170                dm_get_geometry
                0x00000000c0189194                dm_set_geometry
                0x00000000c01891e8                dm_create
                0x00000000c01895a4                dm_get_mdptr
                0x00000000c01895b8                dm_set_mdptr
                0x00000000c01895cc                dm_get
                0x00000000c0189664                dm_get_md
                0x00000000c01896e0                dm_swap_table
                0x00000000c0189824                dm_suspend
                0x00000000c0189b60                dm_kobject_uevent
                0x00000000c0189b80                dm_resume
                0x00000000c0189cb4                dm_next_uevent_seq
                0x00000000c0189ce0                dm_get_event_nr
                0x00000000c0189cf4                dm_wait_event
                0x00000000c0189dc0                dm_uevent_add
                0x00000000c0189df4                dm_disk
                0x00000000c0189e08                dm_kobject
                0x00000000c0189e1c                dm_get_from_kobject
                0x00000000c0189e3c                dm_suspended
                0x00000000c0189e54                dm_table_get
                0x00000000c0189e7c                dm_table_put
                0x00000000c0189eac                dm_table_get_mode
                0x00000000c0189f10                dm_table_barrier_ok
                0x00000000c0189f28                dm_table_get_md
                0x00000000c0189f48                dm_set_device_limits
                0x00000000c018a12c                dm_table_unplug_all
                0x00000000c018a218                dm_put_device
                0x00000000c018a2ac                dm_vcalloc
                0x00000000c018a394                dm_table_get_size
                0x00000000c018a3c0                dm_table_event
                0x00000000c018a4b4                dm_get_device
                0x00000000c018a76c                dm_table_create
                0x00000000c018a814                dm_table_destroy
                0x00000000c018a8ec                dm_split_args
                0x00000000c018aa04                dm_table_add_target
                0x00000000c018ad44                dm_table_complete
                0x00000000c018af58                dm_table_event_callback
                0x00000000c018af94                dm_table_get_target
                0x00000000c018afbc                dm_table_find_target
                0x00000000c018b034                dm_table_set_restrictions
                0x00000000c018b0b4                dm_table_get_num_targets
                0x00000000c018b0c8                dm_table_get_devices
                0x00000000c018b0dc                dm_table_presuspend_targets
                0x00000000c018b0fc                dm_table_postsuspend_targets
                0x00000000c018b11c                dm_table_resume_targets
                0x00000000c018b1b4                dm_table_any_congested
                0x00000000c018b2a8                dm_unregister_target
                0x00000000c018b38c                dm_register_target
                0x00000000c018b4fc                dm_get_target_type
                0x00000000c018b534                dm_put_target_type
                0x00000000c018b580                dm_target_iterate
                0x00000000c018b5e4                dm_target_exit
                0x00000000c018b834                dm_linear_exit
                0x00000000c018bed4                dm_stripe_exit
                0x00000000c018d944                dm_interface_exit
                0x00000000c018d97c                dm_copy_name_and_uuid
                0x00000000c018dbb8                dm_io_client_destroy
                0x00000000c018dbe4                dm_io_client_resize
                0x00000000c018dc08                dm_io_client_create
                0x00000000c018deb8                dm_io
                0x00000000c018e2d4                dm_kcopyd_client_destroy
                0x00000000c018e430                dm_kcopyd_client_create
                0x00000000c018e9fc                dm_kcopyd_copy
                0x00000000c018eb70                dm_kcopyd_exit
                0x00000000c018ec78                dm_sysfs_init
                0x00000000c018eccc                dm_sysfs_exit
                0x00000000c018ece4                dm_path_uevent
                0x00000000c018ee98                dm_send_uevents
                0x00000000c018efac                dm_uevent_init
                0x00000000c018f00c                dm_uevent_exit
                0x00000000c0190c00                mmc_request_done
                0x00000000c0190c90                mmc_align_data_size
                0x00000000c0190df4                mmc_detect_change
                0x00000000c0190e2c                mmc_release_host
                0x00000000c0190e90                __mmc_claim_host
                0x00000000c0190f94                mmc_wait_for_req
                0x00000000c01910c4                mmc_wait_for_cmd
                0x00000000c019115c                mmc_set_data_timeout
                0x00000000c0191244                mmc_vddrange_to_ocrmask
                0x00000000c0191318                mmc_resume_bus
                0x00000000c019143c                mmc_set_chip_select
                0x00000000c0191460                mmc_set_clock
                0x00000000c01914bc                mmc_set_bus_mode
                0x00000000c01914e0                mmc_set_bus_width
                0x00000000c0191504                mmc_select_voltage
                0x00000000c0191574                mmc_resume_host
                0x00000000c0191684                mmc_set_timing
                0x00000000c01916a8                mmc_attach_bus
                0x00000000c0191750                mmc_detach_bus
                0x00000000c0191804                mmc_suspend_host
                0x00000000c0191928                mmc_rescan
                0x00000000c0191b80                mmc_start_host
                0x00000000c0191ba4                mmc_stop_host
                0x00000000c0191db8                mmc_unregister_driver
                0x00000000c0191dd8                mmc_register_driver
                0x00000000c0191eec                mmc_register_bus
                0x00000000c0191f08                mmc_unregister_bus
                0x00000000c0191f24                mmc_alloc_card
                0x00000000c0191f90                mmc_add_card
                0x00000000c0192098                mmc_remove_card
                0x00000000c01920fc                mmc_free_host
                0x00000000c0192128                mmc_remove_host
                0x00000000c0192148                mmc_add_host
                0x00000000c01921bc                mmc_alloc_host
                0x00000000c01922bc                mmc_register_host_class
                0x00000000c01922e0                mmc_unregister_host_class
                0x00000000c0192578                mmc_attach_mmc
                0x00000000c0192e4c                mmc_select_card
                0x00000000c0192e7c                mmc_deselect_cards
                0x00000000c0192e94                mmc_go_idle
                0x00000000c0192f40                mmc_send_op_cond
                0x00000000c0193020                mmc_all_send_cid
                0x00000000c01930b8                mmc_set_relative_addr
                0x00000000c0193130                mmc_send_csd
                0x00000000c01931bc                mmc_send_cid
                0x00000000c019325c                mmc_send_ext_csd
                0x00000000c019328c                mmc_spi_read_ocr
                0x00000000c01932f4                mmc_spi_set_crc
                0x00000000c0193354                mmc_switch
                0x00000000c01933e0                mmc_send_status
                0x00000000c0193724                mmc_attach_sd
                0x00000000c0193f30                mmc_wait_for_app_cmd
                0x00000000c0194008                mmc_app_set_bus_width
                0x00000000c0194098                mmc_send_app_op_cond
                0x00000000c0194178                mmc_send_if_cond
                0x00000000c01941f4                mmc_send_relative_addr
                0x00000000c0194274                mmc_app_send_scr
                0x00000000c01943bc                mmc_sd_switch
                0x00000000c019456c                sdio_reset_comm
                0x00000000c01947cc                mmc_attach_sdio
                0x00000000c0194ce0                mmc_send_io_op_cond
                0x00000000c0194db0                mmc_io_rw_direct
                0x00000000c0194ec0                mmc_io_rw_extended
                0x00000000c01953d0                sdio_unregister_driver
                0x00000000c01953f4                sdio_register_driver
                0x00000000c0195420                sdio_register_bus
                0x00000000c019543c                sdio_unregister_bus
                0x00000000c0195458                sdio_alloc_func
                0x00000000c01954bc                sdio_add_func
                0x00000000c0195508                sdio_remove_func
                0x00000000c0195a28                sdio_read_common_cis
                0x00000000c0195a40                sdio_free_common_cis
                0x00000000c0195a74                sdio_read_func_cis
                0x00000000c0195adc                sdio_free_func_cis
                0x00000000c0195b30                sdio_set_block_size
                0x00000000c0195bdc                sdio_disable_func
                0x00000000c0195df8                sdio_writesb
                0x00000000c0195e28                sdio_readsb
                0x00000000c0195e50                sdio_memcpy_toio
                0x00000000c0195e80                sdio_writel
                0x00000000c0195eb4                sdio_writew
                0x00000000c0195ee8                sdio_memcpy_fromio
                0x00000000c0195f10                sdio_readl
                0x00000000c0195f64                sdio_readw
                0x00000000c0195fbc                sdio_align_size
                0x00000000c019614c                sdio_enable_func
                0x00000000c019624c                sdio_claim_host
                0x00000000c0196294                sdio_f0_writeb
                0x00000000c019630c                sdio_f0_readb
                0x00000000c0196384                sdio_writeb
                0x00000000c01963e4                sdio_readb_ext
                0x00000000c0196464                sdio_readb
                0x00000000c01964dc                sdio_release_host
                0x00000000c0196520                sdio_release_irq
                0x00000000c0196850                sdio_claim_irq
                0x00000000c01976b0                mmc_init_queue
                0x00000000c0197990                mmc_queue_suspend
                0x00000000c01979d4                mmc_queue_resume
                0x00000000c0197a18                mmc_cleanup_queue
                0x00000000c0197a94                mmc_queue_map_sg
                0x00000000c0197b34                mmc_queue_bounce_pre
                0x00000000c0197b88                mmc_queue_bounce_post
                0x00000000c01984ac                hid_set_field
                0x00000000c0198a40                hid_unregister_driver
                0x00000000c0198b64                hid_destroy_device
                0x00000000c0198ba8                hid_allocate_device
                0x00000000c0198c58                hid_output_report
                0x00000000c019901c                hid_add_device
                0x00000000c0199140                hid_connect
                0x00000000c0199810                hid_report_raw_event
                0x00000000c0199ce4                hid_input_report
                0x00000000c0199dd0                hid_parse_report
                0x00000000c019a1e8                __hid_register_driver
                0x00000000c019a388                hidinput_find_field
                0x00000000c019a45c                hidinput_disconnect
                0x00000000c019a4c4                hidinput_connect
                0x00000000c019d618                hidinput_report_event
                0x00000000c019d660                hidinput_hid_event
                0x00000000c01a0f18                task_get_unused_fd_flags
                0x00000000c01a1024                binder_thread_write
                0x00000000c01a2f5c                binder_stat_br
                0x00000000c01a4440                logger_aio_write
                0x00000000c01a4974                timed_output_dev_unregister
                0x00000000c01a4a88                timed_output_dev_register
 .text          0x00000000c01a4da8    0xdd564 net/built-in.o
                0x00000000c01a4e24                kernel_bind
                0x00000000c01a4e40                kernel_listen
                0x00000000c01a4e5c                kernel_connect
                0x00000000c01a4e78                kernel_getsockname
                0x00000000c01a4e98                kernel_getpeername
                0x00000000c01a4eb8                kernel_sock_ioctl
                0x00000000c01a4f34                kernel_sock_shutdown
                0x00000000c01a5140                kernel_sendpage
                0x00000000c01a51bc                kernel_setsockopt
                0x00000000c01a525c                kernel_getsockopt
                0x00000000c01a568c                dlci_ioctl_set
                0x00000000c01a56c4                vlan_ioctl_set
                0x00000000c01a56fc                brioctl_set
                0x00000000c01a5818                sock_create_lite
                0x00000000c01a5964                sock_map_fd
                0x00000000c01a5a04                sock_wake_async
                0x00000000c01a5aa0                sock_recvmsg
                0x00000000c01a5b84                kernel_recvmsg
                0x00000000c01a5c04                sock_sendmsg
                0x00000000c01a5cd4                kernel_sendmsg
                0x00000000c01a5d54                __sock_recv_timestamp
                0x00000000c01a5e04                sock_release
                0x00000000c01a5e7c                sockfd_lookup
                0x00000000c01a5ff4                sock_unregister
                0x00000000c01a6048                sock_register
                0x00000000c01a6258                sock_create_kern
                0x00000000c01a6298                sock_create
                0x00000000c01a62e8                kernel_accept
                0x00000000c01a6368                move_addr_to_kernel
                0x00000000c01a63e4                move_addr_to_user
                0x00000000c01a6480                sys_socket
                0x00000000c01a64f0                sys_socketpair
                0x00000000c01a66a4                sys_bind
                0x00000000c01a6730                sys_listen
                0x00000000c01a67a4                sys_accept4
                0x00000000c01a6924                sys_accept
                0x00000000c01a693c                sys_connect
                0x00000000c01a69d0                sys_getsockname
                0x00000000c01a6a5c                sys_getpeername
                0x00000000c01a6aec                sys_sendto
                0x00000000c01a6bc4                sys_send
                0x00000000c01a6bec                sys_recvfrom
                0x00000000c01a6cd0                sys_recv
                0x00000000c01a6cf8                sys_setsockopt
                0x00000000c01a6da0                sys_getsockopt
                0x00000000c01a6e3c                sys_shutdown
                0x00000000c01a6ea0                sys_sendmsg
                0x00000000c01a70b8                sys_recvmsg
                0x00000000c01a7280                socket_seq_show
                0x00000000c01a72ac                sock_rfree
                0x00000000c01a72f4                sock_i_uid
                0x00000000c01a7310                sock_i_ino
                0x00000000c01a732c                __sk_mem_schedule
                0x00000000c01a7510                __sk_mem_reclaim
                0x00000000c01a7584                sock_no_bind
                0x00000000c01a7598                sock_no_connect
                0x00000000c01a75ac                sock_no_socketpair
                0x00000000c01a75c0                sock_no_accept
                0x00000000c01a75d4                sock_no_getname
                0x00000000c01a75e8                sock_no_poll
                0x00000000c01a75fc                sock_no_ioctl
                0x00000000c01a7610                sock_no_listen
                0x00000000c01a7624                sock_no_shutdown
                0x00000000c01a7638                sock_no_setsockopt
                0x00000000c01a764c                sock_no_getsockopt
                0x00000000c01a7660                sock_no_sendmsg
                0x00000000c01a7674                sock_no_recvmsg
                0x00000000c01a7688                sock_no_mmap
                0x00000000c01a769c                sock_common_getsockopt
                0x00000000c01a76cc                sock_common_recvmsg
                0x00000000c01a7724                sock_common_setsockopt
                0x00000000c01a7754                sock_prot_inuse_add
                0x00000000c01a777c                sock_prot_inuse_get
                0x00000000c01a7828                sock_kfree_s
                0x00000000c01a7860                proto_unregister
                0x00000000c01a7934                sock_kmalloc
                0x00000000c01a79b8                proto_register
                0x00000000c01a7c00                release_sock
                0x00000000c01a7c90                lock_sock_nested
                0x00000000c01a7d40                sock_init_data
                0x00000000c01a7f54                sock_no_sendpage
                0x00000000c01a7fd0                sk_wait_data
                0x00000000c01a80c4                sock_wmalloc
                0x00000000c01a8150                sk_dst_check
                0x00000000c01a81c8                __sk_dst_check
                0x00000000c01a8220                sk_free
                0x00000000c01a8300                sock_wfree
                0x00000000c01a8370                sk_common_release
                0x00000000c01a8424                sk_release_kernel
                0x00000000c01a85c4                sk_receive_skb
                0x00000000c01a8670                sock_queue_rcv_skb
                0x00000000c01a8764                sk_setup_caps
                0x00000000c01a8b34                sk_stop_timer
                0x00000000c01a8b7c                sk_reset_timer
                0x00000000c01a8bbc                sk_send_sigurg
                0x00000000c01a8c9c                sk_alloc
                0x00000000c01a8ce8                sk_clone
                0x00000000c01a8f28                sock_alloc_send_skb
                0x00000000c01a9174                sock_getsockopt
                0x00000000c01a9564                sock_rmalloc
                0x00000000c01a95f0                sock_enable_timestamp
                0x00000000c01a961c                sock_get_timestampns
                0x00000000c01a96d0                sock_get_timestamp
                0x00000000c01a9798                sock_setsockopt
                0x00000000c01a9d4c                reqsk_queue_alloc
                0x00000000c01a9e20                __reqsk_queue_destroy
                0x00000000c01a9e54                reqsk_queue_destroy
                0x00000000c01a9f3c                skb_add_rx_frag
                0x00000000c01a9f9c                skb_dequeue
                0x00000000c01a9ff8                skb_dequeue_tail
                0x00000000c01aa054                skb_queue_head
                0x00000000c01aa090                skb_queue_tail
                0x00000000c01aa0c8                skb_unlink
                0x00000000c01aa108                skb_append
                0x00000000c01aa144                skb_insert
                0x00000000c01aa17c                skb_prepare_seq_read
                0x00000000c01aa1a8                skb_abort_seq_read
                0x00000000c01aa1f4                skb_find_text
                0x00000000c01aa2c4                skb_seq_read
                0x00000000c01aa6b8                skb_to_sgvec
                0x00000000c01aa6e4                skb_under_panic
                0x00000000c01aa758                skb_over_panic
                0x00000000c01aaac0                skb_store_bits
                0x00000000c01aacf4                skb_copy_bits
                0x00000000c01aaf08                skb_checksum
                0x00000000c01ab16c                __netdev_alloc_page
                0x00000000c01ab470                skb_append_datato_frags
                0x00000000c01ab634                skb_copy_and_csum_bits
                0x00000000c01ab8c8                skb_copy_and_csum_dev
                0x00000000c01ab998                skb_push
                0x00000000c01ab9d8                skb_clone
                0x00000000c01aba60                __kfree_skb
                0x00000000c01abb1c                kfree_skb
                0x00000000c01abc30                skb_queue_purge
                0x00000000c01abd34                pskb_expand_head
                0x00000000c01abf3c                skb_morph
                0x00000000c01abf6c                __pskb_pull_tail
                0x00000000c01ac224                ___pskb_trim
                0x00000000c01ac45c                skb_pad
                0x00000000c01ac570                __alloc_skb
                0x00000000c01ac684                dev_alloc_skb
                0x00000000c01ac6c8                __netdev_alloc_skb
                0x00000000c01ac714                skb_gro_receive
                0x00000000c01ac9b8                skb_trim
                0x00000000c01aca08                __skb_warn_lro_forwarding
                0x00000000c01aca38                skb_partial_csum_set
                0x00000000c01acac4                skb_pull
                0x00000000c01acb18                skb_pull_rcsum
                0x00000000c01acbac                skb_put
                0x00000000c01acc08                skb_split
                0x00000000c01ace04                skb_copy_expand
                0x00000000c01aced4                pskb_copy
                0x00000000c01ad048                skb_copy
                0x00000000c01ad0e8                skb_cow_data
                0x00000000c01ad3a4                skb_segment
                0x00000000c01ad8c8                skb_recycle_check
                0x00000000c01ad9ac                skb_realloc_headroom
                0x00000000c01ada1c                skb_splice_bits
                0x00000000c01adb2c                skb_shift
                0x00000000c01adeb0                memcpy_fromiovec
                0x00000000c01adf78                memcpy_fromiovecend
                0x00000000c01ae048                csum_partial_copy_fromiovecend
                0x00000000c01ae2dc                memcpy_toiovec
                0x00000000c01ae388                verify_iovec
                0x00000000c01ae46c                datagram_poll
                0x00000000c01ae898                __skb_checksum_complete_head
                0x00000000c01ae8f8                __skb_checksum_complete
                0x00000000c01ae910                skb_copy_datagram_from_iovec
                0x00000000c01aeadc                skb_copy_datagram_iovec
                0x00000000c01aeca8                skb_copy_and_csum_datagram_iovec
                0x00000000c01aedb8                skb_free_datagram
                0x00000000c01aedf8                skb_kill_datagram
                0x00000000c01aee88                __skb_recv_datagram
                0x00000000c01af0c4                skb_recv_datagram
                0x00000000c01af0f4                sk_stream_kill_queues
                0x00000000c01af210                sk_stream_wait_memory
                0x00000000c01af428                sk_stream_wait_connect
                0x00000000c01af5bc                sk_stream_write_space
                0x00000000c01af65c                sk_stream_error
                0x00000000c01af6d8                sk_stream_wait_close
                0x00000000c01af7bc                scm_fp_dup
                0x00000000c01af844                put_cmsg
                0x00000000c01af95c                __scm_destroy
                0x00000000c01afa50                __scm_send
                0x00000000c01afce4                scm_detach_fds
                0x00000000c01afe48                gnet_stats_copy_basic
                0x00000000c01afeb0                gnet_stats_copy_rate_est
                0x00000000c01aff14                gnet_stats_copy_queue
                0x00000000c01aff8c                gnet_stats_copy_app
                0x00000000c01affe4                gnet_stats_finish_copy
                0x00000000c01b0074                gnet_stats_start_copy_compat
                0x00000000c01b0100                gnet_stats_start_copy
                0x00000000c01b0128                gen_estimator_active
                0x00000000c01b01b4                gen_kill_estimator
                0x00000000c01b0378                gen_new_estimator
                0x00000000c01b0510                gen_replace_estimator
                0x00000000c01b0548                unregister_pernet_device
                0x00000000c01b059c                register_pernet_device
                0x00000000c01b0600                unregister_pernet_subsys
                0x00000000c01b0640                register_pernet_subsys
                0x00000000c01b068c                net_assign_generic
                0x00000000c01b075c                unregister_pernet_gen_device
                0x00000000c01b07c4                unregister_pernet_gen_subsys
                0x00000000c01b0818                register_pernet_gen_device
                0x00000000c01b08c4                register_pernet_gen_subsys
                0x00000000c01b0954                copy_net_ns
                0x00000000c01b0970                skb_dma_unmap
                0x00000000c01b0980                skb_dma_map
                0x00000000c01b0a78                __dev_get_by_index
                0x00000000c01b0abc                dev_get_by_index
                0x00000000c01b0af0                dev_get_by_flags
                0x00000000c01b0b58                net_enable_timestamp
                0x00000000c01b0b84                net_disable_timestamp
                0x00000000c01b0bb0                __napi_schedule
                0x00000000c01b0c00                netif_napi_add
                0x00000000c01b0c64                register_gifconf
                0x00000000c01b0c90                dev_seq_stop
                0x00000000c01b0e80                dev_get_flags
                0x00000000c01b0ee0                netdev_resync_ops
                0x00000000c01b0f7c                dev_get_stats
                0x00000000c01b0fa8                netdev_increment_features
                0x00000000c01b1030                netdev_fix_features
                0x00000000c01b1454                __dev_getfirstbyhwtype
                0x00000000c01b14c8                dev_getfirstbyhwtype
                0x00000000c01b1518                __dev_remove_pack
                0x00000000c01b15ac                dev_add_pack
                0x00000000c01b1620                __dev_get_by_name
                0x00000000c01b16b4                dev_get_by_name
                0x00000000c01b16e8                synchronize_net
                0x00000000c01b16fc                dev_remove_pack
                0x00000000c01b1714                alloc_netdev_mq
                0x00000000c01b1840                netif_napi_del
                0x00000000c01b18ec                init_dummy_netdev
                0x00000000c01b1968                netdev_set_master
                0x00000000c01b1a2c                dev_getbyhwaddr
                0x00000000c01b1ac0                netif_rx
                0x00000000c01b1bd4                netif_receive_skb
                0x00000000c01b1fcc                dev_gro_receive
                0x00000000c01b217c                napi_gro_flush
                0x00000000c01b21b8                napi_gro_receive
                0x00000000c01b222c                netif_rx_ni
                0x00000000c01b2260                skb_gso_segment
                0x00000000c01b24a0                skb_checksum_help
                0x00000000c01b25e0                unregister_netdevice_notifier
                0x00000000c01b2614                register_netdevice_notifier
                0x00000000c01b27a4                netdev_boot_setup_check
                0x00000000c01b2824                __netif_schedule
                0x00000000c01b287c                netif_device_detach
                0x00000000c01b28d4                napi_reuse_skb
                0x00000000c01b2920                napi_fraginfo_skb
                0x00000000c01b2a48                napi_gro_frags
                0x00000000c01b2ad8                dev_seq_start
                0x00000000c01b2b50                dev_seq_next
                0x00000000c01b2bf4                __napi_complete
                0x00000000c01b2e64                napi_complete
                0x00000000c01b3060                dev_disable_lro
                0x00000000c01b30dc                dev_kfree_skb_irq
                0x00000000c01b3134                dev_kfree_skb_any
                0x00000000c01b317c                free_netdev
                0x00000000c01b3210                netdev_rx_csum_fault
                0x00000000c01b3250                netif_device_attach
                0x00000000c01b32c4                dev_load
                0x00000000c01b3304                dev_valid_name
                0x00000000c01b33a4                dev_alloc_name
                0x00000000c01b3510                netdev_boot_base
                0x00000000c01b3594                dev_set_alias
                0x00000000c01b3638                call_netdevice_notifiers
                0x00000000c01b3660                dev_set_mac_address
                0x00000000c01b36c8                dev_set_mtu
                0x00000000c01b3748                dev_close
                0x00000000c01b39c4                unregister_netdevice
                0x00000000c01b3a2c                unregister_netdev
                0x00000000c01b3a50                netdev_bonding_change
                0x00000000c01b3a6c                netdev_state_change
                0x00000000c01b3aa8                netdev_features_change
                0x00000000c01b3ac4                dev_change_name
                0x00000000c01b3cd4                dev_hard_start_xmit
                0x00000000c01b3f48                dev_queue_xmit
                0x00000000c01b43c8                netif_nit_deliver
                0x00000000c01b4478                __dev_set_rx_mode
                0x00000000c01b4510                dev_set_rx_mode
                0x00000000c01b4534                dev_set_allmulti
                0x00000000c01b45f8                dev_set_promiscuity
                0x00000000c01b4638                dev_change_flags
                0x00000000c01b4a64                dev_open
                0x00000000c01b4b5c                __dev_addr_delete
                0x00000000c01b4c14                dev_unicast_delete
                0x00000000c01b4c98                __dev_addr_add
                0x00000000c01b4d8c                dev_unicast_add
                0x00000000c01b4e10                __dev_addr_sync
                0x00000000c01b4ee4                dev_unicast_sync
                0x00000000c01b4f2c                __dev_addr_unsync
                0x00000000c01b4fb4                dev_unicast_unsync
                0x00000000c01b4ff0                dev_ioctl
                0x00000000c01b5654                netdev_run_todo
                0x00000000c01b5878                dev_change_net_namespace
                0x00000000c01b58e8                netdev_drivername
                0x00000000c01b5944                register_netdevice
                0x00000000c01b5d40                register_netdev
                0x00000000c01b5d94                ethtool_op_get_link
                0x00000000c01b5db4                ethtool_op_get_tx_csum
                0x00000000c01b5dd4                ethtool_op_set_tx_csum
                0x00000000c01b5dfc                ethtool_op_set_tx_hw_csum
                0x00000000c01b5e24                ethtool_op_set_tx_ipv6_csum
                0x00000000c01b5e4c                ethtool_op_get_sg
                0x00000000c01b5e64                ethtool_op_set_sg
                0x00000000c01b5e8c                ethtool_op_get_tso
                0x00000000c01b5ea4                ethtool_op_set_tso
                0x00000000c01b5ecc                ethtool_op_get_ufo
                0x00000000c01b5ee4                ethtool_op_set_ufo
                0x00000000c01b5f0c                ethtool_op_get_flags
                0x00000000c01b5f24                ethtool_op_set_flags
                0x00000000c01b60c4                dev_ethtool
                0x00000000c01b7dcc                dev_mc_unsync
                0x00000000c01b7e08                dev_mc_sync
                0x00000000c01b7e50                dev_mc_add
                0x00000000c01b7eac                dev_mc_delete
                0x00000000c01b7f08                dst_destroy
                0x00000000c01b81dc                __dst_free
                0x00000000c01b8290                dst_alloc
                0x00000000c01b8340                dst_discard
                0x00000000c01b8598                dst_release
                0x00000000c01b85e4                call_netevent_notifiers
                0x00000000c01b860c                unregister_netevent_notifier
                0x00000000c01b862c                register_netevent_notifier
                0x00000000c01b88c8                neigh_seq_stop
                0x00000000c01b88dc                neigh_for_each
                0x00000000c01b9238                neigh_sysctl_unregister
                0x00000000c01b92ac                neigh_sysctl_register
                0x00000000c01b94c0                neigh_connected_output
                0x00000000c01b9784                pneigh_enqueue
                0x00000000c01b9864                neigh_compat_output
                0x00000000c01b992c                __pneigh_lookup
                0x00000000c01b99a8                neigh_lookup_nodev
                0x00000000c01b9a54                neigh_lookup
                0x00000000c01b9b10                pneigh_lookup
                0x00000000c01b9d04                neigh_seq_next
                0x00000000c01b9dc0                neigh_seq_start
                0x00000000c01b9f74                neigh_destroy
                0x00000000c01ba1b8                __neigh_event_send
                0x00000000c01ba354                neigh_resolve_output
                0x00000000c01ba5a8                neigh_parms_release
                0x00000000c01ba650                neigh_rand_reach_time
                0x00000000c01ba680                neigh_table_init_no_netlink
                0x00000000c01ba824                neigh_parms_alloc
                0x00000000c01ba91c                neigh_table_init
                0x00000000c01baa5c                neigh_update
                0x00000000c01bb158                __neigh_for_each_release
                0x00000000c01bb1cc                neigh_create
                0x00000000c01bb668                neigh_event_ns
                0x00000000c01bba24                neigh_ifdown
                0x00000000c01bbaec                neigh_table_clear
                0x00000000c01bbbec                neigh_changeaddr
                0x00000000c01bc248                pneigh_delete
                0x00000000c01bc484                rtnl_is_locked
                0x00000000c01bc4a8                __rtnl_link_register
                0x00000000c01bc4f0                __rtnl_link_unregister
                0x00000000c01bccd4                __rta_fill
                0x00000000c01bcd2c                rtnetlink_put_metrics
                0x00000000c01bd390                rtnl_create_link
                0x00000000c01bd484                rtnl_put_cacheinfo
                0x00000000c01bd52c                rtnl_set_sk_err
                0x00000000c01bd554                rtnl_notify
                0x00000000c01bd598                rtnl_unicast
                0x00000000c01bd6f0                rtnl_trylock
                0x00000000c01bd70c                rtnl_unlock
                0x00000000c01bd720                rtnl_lock
                0x00000000c01bd768                rtnl_link_unregister
                0x00000000c01bd78c                rtnl_kill_links
                0x00000000c01bd7ec                rtnl_link_register
                0x00000000c01bd818                rtnl_unregister_all
                0x00000000c01bd85c                rtnl_unregister
                0x00000000c01bd8c4                __rtnl_register
                0x00000000c01bd958                rtnl_register
                0x00000000c01bd98c                __rtnl_unlock
                0x00000000c01bdfec                rtnetlink_send
                0x00000000c01be070                rtmsg_ifinfo
                0x00000000c01be1d4                inet_proto_csum_replace4
                0x00000000c01be29c                in4_pton
                0x00000000c01be410                in6_pton
                0x00000000c01be728                in_aton
                0x00000000c01be7a8                net_ratelimit
                0x00000000c01be908                linkwatch_fire_event
                0x00000000c01beb60                linkwatch_run_queue
                0x00000000c01bebd4                sk_chk_filter
                0x00000000c01bee68                sk_run_filter
                0x00000000c01bf578                sk_filter
                0x00000000c01bf604                sk_attach_filter
                0x00000000c01bf78c                sk_detach_filter
                0x00000000c01bf9bc                flow_cache_lookup
                0x00000000c01bfd14                flow_cache_flush
                0x00000000c01c0144                netdev_class_remove_file
                0x00000000c01c0164                netdev_class_create_file
                0x00000000c01c078c                netdev_unregister_kobject
                0x00000000c01c07b0                netdev_register_kobject
                0x00000000c01c07fc                netdev_initialize_kobject
                0x00000000c01c0814                netdev_kobject_init
                0x00000000c01c0838                llc_sap_close
                0x00000000c01c08a4                llc_sap_find
                0x00000000c01c091c                llc_sap_open
                0x00000000c01c09e0                llc_add_pack
                0x00000000c01c0a04                llc_remove_pack
                0x00000000c01c0a2c                llc_set_station_handler
                0x00000000c01c0a48                llc_rcv
                0x00000000c01c0d14                llc_mac_hdr_init
                0x00000000c01c0db0                llc_build_and_send_ui_pkt
                0x00000000c01c0e1c                eth_change_mtu
                0x00000000c01c0e44                eth_validate_addr
                0x00000000c01c0f14                print_mac
                0x00000000c01c0f3c                sysfs_format_mac
                0x00000000c01c0f80                alloc_etherdev_mq
                0x00000000c01c0fa8                ether_setup
                0x00000000c01c1024                eth_mac_addr
                0x00000000c01c109c                eth_header_cache_update
                0x00000000c01c10bc                eth_header_cache
                0x00000000c01c1128                eth_header_parse
                0x00000000c01c1154                eth_type_trans
                0x00000000c01c1258                eth_rebuild_header
                0x00000000c01c12b8                eth_header
                0x00000000c01c137c                unregister_8022_client
                0x00000000c01c13c0                register_8022_client
                0x00000000c01c1558                unregister_snap_client
                0x00000000c01c159c                register_snap_client
                0x00000000c01c168c                stp_proto_unregister
                0x00000000c01c1740                stp_proto_register
                0x00000000c01c1ae0                qdisc_reset
                0x00000000c01c1e5c                qdisc_destroy
                0x00000000c01c1f08                netif_carrier_off
                0x00000000c01c1fa8                __qdisc_run
                0x00000000c01c21b8                __netdev_watchdog_up
                0x00000000c01c2230                netif_carrier_on
                0x00000000c01c2288                qdisc_alloc
                0x00000000c01c233c                qdisc_create_dflt
                0x00000000c01c239c                dev_activate
                0x00000000c01c251c                dev_deactivate
                0x00000000c01c2698                dev_init_scheduler
                0x00000000c01c2704                dev_shutdown
                0x00000000c01c2b08                netlink_set_nonroot
                0x00000000c01c3444                netlink_dump_start
                0x00000000c01c35c8                netlink_unregister_notifier
                0x00000000c01c35e8                netlink_register_notifier
                0x00000000c01c3608                netlink_kernel_release
                0x00000000c01c365c                netlink_broadcast
                0x00000000c01c3b68                netlink_clear_multicast_users
                0x00000000c01c3fdc                netlink_change_ngroups
                0x00000000c01c44a8                netlink_kernel_create
                0x00000000c01c4628                netlink_has_listeners
                0x00000000c01c46a8                netlink_getsockbyfilp
                0x00000000c01c4704                netlink_attachskb
                0x00000000c01c48f0                netlink_sendskb
                0x00000000c01c494c                netlink_unicast
                0x00000000c01c4bf4                nlmsg_notify
                0x00000000c01c4ef8                netlink_ack
                0x00000000c01c504c                netlink_rcv_skb
                0x00000000c01c5100                netlink_detachskb
                0x00000000c01c5144                netlink_set_err
                0x00000000c01c51f4                nla_find
                0x00000000c01c5254                nla_append
                0x00000000c01c52b0                nla_memcpy
                0x00000000c01c52e0                __nla_reserve_nohdr
                0x00000000c01c5318                __nla_put_nohdr
                0x00000000c01c5340                nla_put_nohdr
                0x00000000c01c5388                nla_reserve_nohdr
                0x00000000c01c53cc                __nla_reserve
                0x00000000c01c541c                __nla_put
                0x00000000c01c5448                nla_put
                0x00000000c01c5490                nla_reserve
                0x00000000c01c54d4                nla_strlcpy
                0x00000000c01c5540                nla_strcmp
                0x00000000c01c5728                nla_parse
                0x00000000c01c57f8                nla_validate
                0x00000000c01c5870                nla_memcmp
                0x00000000c01c63c4                genl_register_ops
                0x00000000c01c6540                genl_unregister_mc_group
                0x00000000c01c657c                genl_unregister_family
                0x00000000c01c6694                genl_register_family
                0x00000000c01c6804                genl_register_mc_group
                0x00000000c01c695c                genl_unregister_ops
                0x00000000c01c69f8                nf_ct_attach
                0x00000000c01c6a2c                nf_unregister_hook
                0x00000000c01c6a74                nf_unregister_hooks
                0x00000000c01c6aac                nf_register_hook
                0x00000000c01c6b38                nf_register_hooks
                0x00000000c01c6b9c                nf_unregister_afinfo
                0x00000000c01c6be4                nf_conntrack_destroy
                0x00000000c01c6c1c                skb_make_writable
                0x00000000c01c6cd8                nf_register_afinfo
                0x00000000c01c6d20                nf_iterate
                0x00000000c01c6dc4                nf_hook_slow
                0x00000000c01c6f3c                nf_log_packet
                0x00000000c01c6fbc                nf_log_unregister
                0x00000000c01c7010                nf_log_register
                0x00000000c01c70d0                nf_log_unregister_pf
                0x00000000c01c7358                nf_reinject
                0x00000000c01c74b0                nf_register_queue_handler
                0x00000000c01c7518                nf_unregister_queue_handlers
                0x00000000c01c7568                nf_unregister_queue_handler
                0x00000000c01c7634                nf_queue
                0x00000000c01c7730                nf_register_sockopt
                0x00000000c01c7814                nf_unregister_sockopt
                0x00000000c01c7924                nf_getsockopt
                0x00000000c01c7970                nf_setsockopt
                0x00000000c01c79bc                nfnetlink_unicast
                0x00000000c01c79f0                nfnetlink_send
                0x00000000c01c7a54                nfnetlink_has_listeners
                0x00000000c01c7a78                nfnl_unlock
                0x00000000c01c7a94                nfnl_lock
                0x00000000c01c7c44                nfnetlink_subsys_unregister
                0x00000000c01c7c7c                nfnetlink_subsys_register
                0x00000000c01c8464                nfulnl_log_packet
                0x00000000c01c8e70                nf_conntrack_hash_insert
                0x00000000c01c8ec8                nf_ct_port_nlattr_to_tuple
                0x00000000c01c8f5c                nf_conntrack_tuple_taken
                0x00000000c01c90e4                __nf_conntrack_find
                0x00000000c01c9234                nf_conntrack_find_get
                0x00000000c01c93c8                nf_ct_alloc_hashtable
                0x00000000c01c946c                nf_ct_free_hashtable
                0x00000000c01c94b4                nf_ct_iterate_cleanup
                0x00000000c01c9610                nf_conntrack_flush
                0x00000000c01c9640                __nf_ct_kill_acct
                0x00000000c01c96f4                nf_ct_port_tuple_to_nlattr
                0x00000000c01c9764                __nf_conntrack_confirm
                0x00000000c01c9b70                __nf_ct_refresh_acct
                0x00000000c01c9ccc                nf_conntrack_free
                0x00000000c01c9ea0                nf_conntrack_alloc
                0x00000000c01ca01c                nf_conntrack_set_hashsize
                0x00000000c01ca158                nf_conntrack_alter_reply
                0x00000000c01ca1d4                nf_ct_invert_tuple
                0x00000000c01ca244                nf_ct_invert_tuplepr
                0x00000000c01ca294                nf_ct_get_tuple
                0x00000000c01ca310                nf_conntrack_in
                0x00000000c01ca7b8                nf_ct_get_tuplepr
                0x00000000c01ca844                nf_conntrack_cleanup
                0x00000000c01ca908                nf_conntrack_init
                0x00000000c01cace0                need_conntrack
                0x00000000c01caf9c                print_tuple
                0x00000000c01cb5f4                __nf_ct_expect_find
                0x00000000c01cb728                nf_ct_expect_find_get
                0x00000000c01cb900                nf_ct_expect_init
                0x00000000c01cb9fc                nf_ct_expect_alloc
                0x00000000c01cba54                nf_ct_expect_put
                0x00000000c01cba94                nf_ct_unlink_expect
                0x00000000c01cbbc8                nf_ct_expect_related_report
                0x00000000c01cc030                nf_ct_expect_related
                0x00000000c01cc4d0                nf_ct_unexpect_related
                0x00000000c01cc50c                nf_ct_remove_expectations
                0x00000000c01cc570                nf_ct_find_expectation
                0x00000000c01cc708                nf_conntrack_expect_init
                0x00000000c01cc7f4                nf_conntrack_expect_fini
                0x00000000c01cc834                nf_conntrack_helper_unregister
                0x00000000c01ccad4                nf_conntrack_helper_register
                0x00000000c01ccb88                nf_ct_helper_ext_add
                0x00000000c01ccbb0                __nf_ct_try_assign_helper
                0x00000000c01cccc0                __nf_conntrack_helper_find_byname
                0x00000000c01ccd38                nf_conntrack_helper_init
                0x00000000c01ccda0                nf_conntrack_helper_fini
                0x00000000c01ccdd4                nf_ct_l4proto_put
                0x00000000c01ccde4                nf_ct_l3proto_put
                0x00000000c01cce54                nf_ct_l3proto_find_get
                0x00000000c01cce98                nf_ct_l3proto_module_put
                0x00000000c01cceb8                __nf_ct_l4proto_find
                0x00000000c01ccef4                nf_ct_l4proto_find_get
                0x00000000c01ccf28                nf_conntrack_l3proto_register
                0x00000000c01ccfc8                nf_ct_l3proto_try_module_get
                0x00000000c01cd0a4                nf_conntrack_l4proto_unregister
                0x00000000c01cd230                nf_conntrack_l4proto_register
                0x00000000c01cd314                nf_conntrack_l3proto_unregister
                0x00000000c01cd3ec                nf_conntrack_proto_init
                0x00000000c01cd438                nf_conntrack_proto_fini
                0x00000000c01cd89c                nf_conntrack_tcp_update
                0x00000000c01cee48                __nf_ct_ext_destroy
                0x00000000c01cef78                nf_ct_extend_register
                0x00000000c01ceff0                nf_ct_extend_unregister
                0x00000000c01cf03c                __nf_ct_ext_add
                0x00000000c01cf22c                seq_print_acct
                0x00000000c01cf28c                nf_conntrack_acct_init
                0x00000000c01cf360                nf_conntrack_acct_fini
                0x00000000c01cf390                nf_ct_expect_unregister_notifier
                0x00000000c01cf3b0                nf_conntrack_unregister_notifier
                0x00000000c01cf3d0                nf_ct_expect_register_notifier
                0x00000000c01cf3f0                nf_conntrack_register_notifier
                0x00000000c01cf410                __nf_ct_event_cache_init
                0x00000000c01cf4f8                nf_ct_deliver_cached_events
                0x00000000c01cf5b4                nf_ct_event_cache_flush
                0x00000000c01cf5f4                nf_conntrack_ecache_init
                0x00000000c01cf62c                nf_conntrack_ecache_fini
                0x00000000c01d0054                nf_ct_gre_keymap_destroy
                0x00000000c01d0140                nf_ct_gre_keymap_add
                0x00000000c01d035c                nf_ct_gre_keymap_flush
                0x00000000c01d4a28                get_h225_addr
                0x00000000c01d7b40                DecodeRasMessage
                0x00000000c01d7b84                DecodeMultimediaSystemControlMessage
                0x00000000c01d7bc8                DecodeQ931
                0x00000000c01d8ca4                nf_tproxy_assign_sock
                0x00000000c01d8d30                nf_tproxy_get_sock_v4
                0x00000000c01d8e1c                xt_proto_fini
                0x00000000c01d8ed4                xt_proto_init
                0x00000000c01d9218                xt_unregister_table
                0x00000000c01d9288                xt_table_unlock
                0x00000000c01d92b4                xt_unregister_match
                0x00000000c01d9314                xt_unregister_matches
                0x00000000c01d934c                xt_unregister_target
                0x00000000c01d93ac                xt_unregister_targets
                0x00000000c01d9458                xt_register_match
                0x00000000c01d94b8                xt_register_matches
                0x00000000c01d951c                xt_register_target
                0x00000000c01d957c                xt_register_targets
                0x00000000c01d9790                xt_find_revision
                0x00000000c01d9854                xt_replace_table
                0x00000000c01d98b0                xt_register_table
                0x00000000c01d99f4                xt_free_table_info
                0x00000000c01d9a2c                xt_alloc_table_info
                0x00000000c01d9ac4                xt_check_target
                0x00000000c01d9c08                xt_check_match
                0x00000000c01da050                xt_find_table_lock
                0x00000000c01da100                xt_find_target
                0x00000000c01da1e8                xt_request_find_target
                0x00000000c01da244                xt_find_match
                0x00000000c01e03e0                __ip_route_output_key
                0x00000000c01e0e2c                ip_route_output_flow
                0x00000000c01e1038                ip_route_output_key
                0x00000000c01e105c                ip_route_input
                0x00000000c01e1fb0                rt_cache_flush
                0x00000000c01e2134                rt_bind_peer
                0x00000000c01e217c                __ip_select_ident
                0x00000000c01e222c                ip_rt_redirect
                0x00000000c01e2758                ip_rt_send_redirect
                0x00000000c01e288c                ip_rt_frag_needed
                0x00000000c01e2b8c                ip_rt_get_source
                0x00000000c01e2c80                ip_rt_dump
                0x00000000c01e2dd0                ip_rt_multicast_event
                0x00000000c01e2f40                inet_putpeer
                0x00000000c01e31c4                inet_getpeer
                0x00000000c01e34f8                inet_add_protocol
                0x00000000c01e3538                inet_del_protocol
                0x00000000c01e3a24                ip_call_ra_chain
                0x00000000c01e3b04                ip_local_deliver
                0x00000000c01e3ba4                ip_rcv
                0x00000000c01e41e8                ip_defrag
                0x00000000c01e4b74                ip_frag_nqueues
                0x00000000c01e4b88                ip_frag_mem
                0x00000000c01e4be8                ip_forward
                0x00000000c01e4f64                ip_options_build
                0x00000000c01e5144                ip_options_echo
                0x00000000c01e54e4                ip_options_fragment
                0x00000000c01e5588                ip_options_compile
                0x00000000c01e5a80                ip_options_undo
                0x00000000c01e5bc4                ip_options_get_from_user
                0x00000000c01e5cb8                ip_options_get
                0x00000000c01e5d68                ip_forward_options
                0x00000000c01e5ef4                ip_options_rcv_srr
                0x00000000c01e60ac                ip_send_check
                0x00000000c01e636c                ip_generic_getfrag
                0x00000000c01e6550                ip_fragment
                0x00000000c01e7058                __ip_local_out
                0x00000000c01e712c                ip_local_out
                0x00000000c01e715c                ip_queue_xmit
                0x00000000c01e7440                ip_build_and_send_pkt
                0x00000000c01e75a4                ip_mc_output
                0x00000000c01e77a0                ip_output
                0x00000000c01e7860                ip_append_data
                0x00000000c01e81b4                ip_append_page
                0x00000000c01e865c                ip_push_pending_frames
                0x00000000c01e89f8                ip_flush_pending_frames
                0x00000000c01e8a78                ip_send_reply
                0x00000000c01e9228                ip_cmsg_recv
                0x00000000c01e9418                ip_getsockopt
                0x00000000c01e94d8                ip_cmsg_send
                0x00000000c01e95dc                ip_ra_control
                0x00000000c01ea314                ip_setsockopt
                0x00000000c01ea3c4                ip_icmp_error
                0x00000000c01ea4f4                ip_local_error
                0x00000000c01ea654                ip_recv_error
                0x00000000c01ea7fc                __inet_inherit_port
                0x00000000c01ea834                inet_hashinfo_init
                0x00000000c01ea86c                __inet_hash_nolisten
                0x00000000c01eac40                inet_unhash
                0x00000000c01eaca4                __inet_lookup_established
                0x00000000c01eaf54                __inet_lookup_listener
                0x00000000c01eb124                inet_hash
                0x00000000c01eb1d4                inet_bind_bucket_create
                0x00000000c01eb228                inet_bind_bucket_destroy
                0x00000000c01eb25c                inet_put_port
                0x00000000c01eb2b0                inet_bind_hash
                0x00000000c01eb2ec                __inet_hash_connect
                0x00000000c01eb528                inet_hash_connect
                0x00000000c01eb580                inet_twsk_schedule
                0x00000000c01eb728                inet_twsk_alloc
                0x00000000c01eb808                __inet_twsk_hashdance
                0x00000000c01eb8ec                inet_twsk_put
                0x00000000c01eb9ec                inet_twdr_twcal_tick
                0x00000000c01ebb28                inet_twsk_deschedule
                0x00000000c01ebb90                inet_twsk_purge
                0x00000000c01ebcd0                inet_twdr_twkill_work
                0x00000000c01ebd6c                inet_twdr_hangman
                0x00000000c01ebe00                inet_csk_addr2sockaddr
                0x00000000c01ebe2c                inet_get_local_port_range
                0x00000000c01ebe70                inet_csk_bind_conflict
                0x00000000c01ebf6c                inet_csk_search_req
                0x00000000c01ec094                inet_csk_destroy_sock
                0x00000000c01ec1bc                inet_csk_clone
                0x00000000c01ec244                inet_csk_route_req
                0x00000000c01ec35c                inet_csk_reset_keepalive_timer
                0x00000000c01ec384                inet_csk_reqsk_queue_hash_add
                0x00000000c01ec488                inet_csk_reqsk_queue_prune
                0x00000000c01ec6a8                inet_csk_delete_keepalive_timer
                0x00000000c01ec6c0                inet_csk_listen_stop
                0x00000000c01ec7fc                inet_csk_clear_xmit_timers
                0x00000000c01ec840                inet_csk_init_xmit_timers
                0x00000000c01ec898                inet_csk_accept
                0x00000000c01eca80                inet_csk_get_port
                0x00000000c01ecca4                inet_csk_listen_start
                0x00000000c01ecd54                tcp_poll
                0x00000000c01ececc                tcp_gro_receive
                0x00000000c01ed158                tcp_get_info
                0x00000000c01ed344                tcp_ioctl
                0x00000000c01ed524                tcp_set_state
                0x00000000c01ed63c                tcp_done
                0x00000000c01ed6c4                tcp_disconnect
                0x00000000c01ed9e0                tcp_close
                0x00000000c01eddf0                tcp_enter_memory_pressure
                0x00000000c01ede50                tcp_gro_complete
                0x00000000c01edeb4                tcp_tso_segment
                0x00000000c01ee12c                tcp_getsockopt
                0x00000000c01ee428                tcp_shutdown
                0x00000000c01ee480                sk_stream_alloc_skb
                0x00000000c01ee57c                tcp_sendmsg
                0x00000000c01ef010                tcp_sendpage
                0x00000000c01ef64c                tcp_cleanup_rbuf
                0x00000000c01ef78c                tcp_setsockopt
                0x00000000c01efb2c                tcp_recvmsg
                0x00000000c01f02b4                tcp_read_sock
                0x00000000c01f0490                tcp_splice_read
                0x00000000c01f0844                tcp_initialize_rcv_mss
                0x00000000c01f21f4                tcp_parse_options
                0x00000000c01f35a8                tcp_enter_quickack_mode
                0x00000000c01f3c70                tcp_rcv_space_adjust
                0x00000000c01f4990                tcp_update_metrics
                0x00000000c01f4b94                tcp_init_cwnd
                0x00000000c01f4d9c                tcp_enter_cwr
                0x00000000c01f4e68                tcp_use_frto
                0x00000000c01f4f30                tcp_enter_frto
                0x00000000c01f5158                tcp_clear_retrans
                0x00000000c01f5184                tcp_enter_loss
                0x00000000c01f53a0                tcp_simple_retransmit
                0x00000000c01f6f38                tcp_rcv_state_process
                0x00000000c01f796c                tcp_rcv_established
                0x00000000c01f7fb4                tcp_cwnd_application_limited
                0x00000000c01f8048                tcp_select_initial_window
                0x00000000c01f85e8                tcp_make_synack
                0x00000000c01f88d0                tcp_fragment
                0x00000000c01f8c78                tcp_mtu_to_mss
                0x00000000c01f8ccc                tcp_sync_mss
                0x00000000c01f8d50                tcp_mss_to_mtu
                0x00000000c01f8d84                tcp_mtup_init
                0x00000000c01f8dec                tcp_current_mss
                0x00000000c01f8f24                tcp_trim_head
                0x00000000c01f9060                tcp_may_send_now
                0x00000000c01f91a8                __tcp_select_window
                0x00000000c01f9a54                tcp_connect
                0x00000000c01fa68c                tcp_push_one
                0x00000000c01fa6e0                __tcp_push_pending_frames
                0x00000000c01fa77c                tcp_retransmit_skb
                0x00000000c01fad58                tcp_xmit_retransmit_queue
                0x00000000c01faf78                tcp_send_fin
                0x00000000c01fb0e8                tcp_send_active_reset
                0x00000000c01fb21c                tcp_send_synack
                0x00000000c01fb3e8                tcp_send_ack
                0x00000000c01fb4bc                tcp_send_delayed_ack
                0x00000000c01fb588                tcp_write_wakeup
                0x00000000c01fb6fc                tcp_send_probe0
                0x00000000c01fb7e4                tcp_init_xmit_timers
                0x00000000c01fc3cc                tcp_set_keepalive
                0x00000000c01fc960                tcp_v4_send_check
                0x00000000c01fcaf0                tcp4_gro_complete
                0x00000000c01fcb54                tcp4_gro_receive
                0x00000000c01fd288                tcp_proc_unregister
                0x00000000c01fd2c0                tcp_proc_register
                0x00000000c01fd3b8                tcp_v4_destroy_sock
                0x00000000c01fd550                tcp_v4_remember_stamp
                0x00000000c01fd628                tcp_v4_do_rcv
                0x00000000c01fd7f4                tcp_v4_syn_recv_sock
                0x00000000c01fd96c                tcp_v4_connect
                0x00000000c01fdf88                tcp_twsk_unique
                0x00000000c01fe02c                tcp_v4_conn_request
                0x00000000c01fe520                tcp_v4_err
                0x00000000c01fe8e0                tcp_v4_gso_send_check
                0x00000000c01fe98c                tcp_v4_rcv
                0x00000000c01ff06c                tcp_v4_tw_remember_stamp
                0x00000000c01ff0f0                tcp_v4_nuke_addr
                0x00000000c01ff208                tcp4_proc_exit
                0x00000000c01ff224                tcp_twsk_destructor
                0x00000000c01ff234                tcp_child_process
                0x00000000c01ff2e8                tcp_check_req
                0x00000000c01ff684                tcp_create_openreq_child
                0x00000000c01ff960                tcp_timewait_state_process
                0x00000000c01ffcf8                tcp_time_wait
                0x00000000c01ffeb8                tcp_unregister_congestion_control
                0x00000000c01ffee0                tcp_slow_start
                0x00000000c01fff94                tcp_reno_ssthresh
                0x00000000c01fffb4                tcp_reno_min_cwnd
                0x00000000c0200020                tcp_is_cwnd_limited
                0x00000000c02000a0                tcp_reno_cong_avoid
                0x00000000c0200150                tcp_register_congestion_control
                0x00000000c02001f0                tcp_init_congestion_control
                0x00000000c020026c                tcp_cleanup_congestion_control
                0x00000000c0200290                tcp_set_default_congestion_control
                0x00000000c0200320                tcp_get_available_congestion_control
                0x00000000c02003a0                tcp_get_default_congestion_control
                0x00000000c02003e0                tcp_get_allowed_congestion_control
                0x00000000c0200470                tcp_set_allowed_congestion_control
                0x00000000c0200568                tcp_set_congestion_control
                0x00000000c0200650                ip4_datagram_connect
                0x00000000c0200914                raw_seq_next
                0x00000000c0200954                raw_seq_stop
                0x00000000c02012d0                raw_seq_open
                0x00000000c020132c                raw_hash_sk
                0x00000000c02013a0                raw_unhash_sk
                0x00000000c02014b0                raw_seq_start
                0x00000000c0201890                raw_icmp_error
                0x00000000c02019f4                raw_rcv
                0x00000000c0201afc                raw_local_deliver
                0x00000000c0201d74                udp_proc_unregister
                0x00000000c0201dac                udp_proc_register
                0x00000000c0201fd8                udp_poll
                0x00000000c02020c4                udp_lib_getsockopt
                0x00000000c02021c4                udp_getsockopt
                0x00000000c0202500                udp_lib_setsockopt
                0x00000000c020267c                udp_lib_unhash
                0x00000000c020271c                udp_disconnect
                0x00000000c02027c8                udp_recvmsg
                0x00000000c0202b0c                udp_lib_get_port
                0x00000000c0202ccc                udp_v4_get_port
                0x00000000c0202ce8                udp4_seq_show
                0x00000000c0202e94                udp_ioctl
                0x00000000c0202f10                udp_setsockopt
                0x00000000c02031a0                udp4_lib_lookup
                0x00000000c02031e0                udp_flush_pending_frames
                0x00000000c0203210                udp_destroy_sock
                0x00000000c020323c                udp_sendmsg
                0x00000000c02037a4                udp_sendpage
                0x00000000c020390c                __udp4_lib_err
                0x00000000c0203a78                udp_err
                0x00000000c0203a94                udp_queue_rcv_skb
                0x00000000c0203ce4                __udp4_lib_rcv
                0x00000000c0204460                udp_rcv
                0x00000000c0204480                udp4_proc_exit
                0x00000000c0204644                arp_xmit
                0x00000000c02046f8                arp_create
                0x00000000c0204a64                arp_send
                0x00000000c02053bc                arp_mc_map
                0x00000000c0205694                arp_find
                0x00000000c0205854                arp_bind_neighbour
                0x00000000c02058dc                arp_ioctl
                0x00000000c0205e28                arp_ifdown
                0x00000000c0205e48                xrlim_allow
                0x00000000c0206570                icmp_send
                0x00000000c0206bf0                icmp_out_count
                0x00000000c0206c50                icmp_rcv
                0x00000000c0206eb4                inet_select_addr
                0x00000000c02081fc                ipv4_doint_and_flush_strategy
                0x00000000c0208240                ipv4_doint_and_flush
                0x00000000c02082a4                inetdev_by_index
                0x00000000c0208450                unregister_inetaddr_notifier
                0x00000000c0208470                register_inetaddr_notifier
                0x00000000c0208490                in_dev_finish_destroy
                0x00000000c02087f4                inet_addr_onlink
                0x00000000c0208860                inet_ifa_byprefix
                0x00000000c02088e4                devinet_ioctl
                0x00000000c020907c                inet_confirm_addr
                0x00000000c0209108                snmp_fold_field
                0x00000000c020984c                inet_sendmsg
                0x00000000c02098b0                inet_dgram_connect
                0x00000000c0209930                inet_shutdown
                0x00000000c0209a40                snmp_mib_init
                0x00000000c0209ab8                inet_ctl_sock_create
                0x00000000c0209b18                inet_sk_rebuild_header
                0x00000000c0209db0                inet_accept
                0x00000000c0209e58                inet_register_protosw
                0x00000000c0209f14                inet_ioctl
                0x00000000c020a020                inet_getname
                0x00000000c020a0c0                inet_stream_connect
                0x00000000c020a340                inet_bind
                0x00000000c020a4f8                inet_release
                0x00000000c020a56c                build_ehash_secret
                0x00000000c020a878                inet_listen
                0x00000000c020a904                inet_sock_destruct
                0x00000000c020aa98                snmp_mib_free
                0x00000000c020aadc                inet_unregister_protosw
                0x00000000c020cdc0                ip_mc_dec_group
                0x00000000c020d190                ip_mc_inc_group
                0x00000000c020d44c                ip_mc_rejoin_group
                0x00000000c020d5f4                ip_mc_join_group
                0x00000000c020d6e8                igmp_rcv
                0x00000000c020dc6c                ip_mc_down
                0x00000000c020dd38                ip_mc_init_dev
                0x00000000c020ddc0                ip_mc_up
                0x00000000c020de28                ip_mc_destroy_dev
                0x00000000c020deac                ip_mc_leave_group
                0x00000000c020df88                ip_mc_source
                0x00000000c020e2e8                ip_mc_msfilter
                0x00000000c020e508                ip_mc_msfget
                0x00000000c020e67c                ip_mc_gsfget
                0x00000000c020e7fc                ip_mc_sf_allow
                0x00000000c020e8c8                ip_mc_drop_socket
                0x00000000c020e978                ip_check_mc
                0x00000000c020eaf4                ip_dev_find
                0x00000000c020ebc0                inet_addr_type
                0x00000000c020ec80                inet_dev_addr_type
                0x00000000c020f2f4                fib_select_default
                0x00000000c020f330                fib_validate_source
                0x00000000c020f5a0                ip_rt_ioctl
                0x00000000c020f9e8                fib_add_ifaddr
                0x00000000c020fe2c                free_fib_info
                0x00000000c020fea4                fib_release_info
                0x00000000c020ff94                ip_fib_check_default
                0x00000000c0210010                fib_find_alias
                0x00000000c0210074                fib_detect_death
                0x00000000c021014c                fib_nh_match
                0x00000000c02101c4                fib_create_info
                0x00000000c0210aa4                fib_semantic_match
                0x00000000c0210bc4                __fib_res_prefsrc
                0x00000000c0210bec                fib_dump_info
                0x00000000c0210e04                rtmsg_fib
                0x00000000c0210f30                fib_sync_down_addr
                0x00000000c0210fc4                fib_sync_down_dev
                0x00000000c02110a4                inet_frags_init_net
                0x00000000c02110dc                inet_frags_fini
                0x00000000c02110f4                inet_frag_destroy
                0x00000000c02112c4                inet_frags_init
                0x00000000c021136c                inet_frag_find
                0x00000000c02114fc                inet_frag_kill
                0x00000000c02115b8                inet_frag_evictor
                0x00000000c0211678                inet_frags_exit_net
                0x00000000c021342c                fib_hash_table
                0x00000000c02154f8                ip_mroute_setsockopt
                0x00000000c0215f2c                ip_mroute_getsockopt
                0x00000000c021600c                ipmr_ioctl
                0x00000000c02161c0                ip_mr_input
                0x00000000c0216374                pim_rcv_v1
                0x00000000c0216400                ipmr_get_route
                0x00000000c0216520                cookie_check_timestamp
                0x00000000c02165fc                cookie_init_timestamp
                0x00000000c0216658                cookie_v4_init_sequence
                0x00000000c0216774                cookie_v4_check
                0x00000000c02179bc                xfrm4_tunnel_register
                0x00000000c0217a40                xfrm4_tunnel_deregister
                0x00000000c0217f98                nf_ip_checksum
                0x00000000c0218148                ip_route_me_harder
                0x00000000c0218374                ip_xfrm_me_harder
                0x00000000c0218540                need_ipv4_conntrack
                0x00000000c02196a4                nf_nat_proto_find_get
                0x00000000c02196e0                nf_nat_proto_put
                0x00000000c02197bc                nf_nat_protocol_register
                0x00000000c021980c                nf_nat_protocol_unregister
                0x00000000c021988c                nf_nat_used_tuple
                0x00000000c02199cc                nf_nat_icmp_reply_translation
                0x00000000c0219bd8                nf_nat_packet
                0x00000000c0219c60                nf_nat_setup_info
                0x00000000c021a460                nf_nat_mangle_udp_packet
                0x00000000c021a6c8                nf_nat_mangle_tcp_packet
                0x00000000c021aa28                nf_nat_follow_master
                0x00000000c021aae0                nf_nat_seq_adjust
                0x00000000c021aeac                nf_nat_proto_nlattr_to_range
                0x00000000c021af00                nf_nat_proto_range_to_nlattr
                0x00000000c021af70                nf_nat_proto_in_range
                0x00000000c021afd4                nf_nat_proto_unique_tuple
                0x00000000c021b4a4                nf_defrag_ipv4_enable
                0x00000000c021cbc8                nf_nat_need_gre
                0x00000000c021d08c                ipt_do_table
                0x00000000c021d684                ipt_unregister_table
                0x00000000c021dce8                ipt_register_table
                0x00000000c021eac8                alloc_null_binding
                0x00000000c021eb2c                nf_nat_rule_find
                0x00000000c021eb90                nf_nat_rule_cleanup
                0x00000000c0220afc                arpt_unregister_table
                0x00000000c0220b7c                arpt_register_table
                0x00000000c0220c44                arpt_do_table
                0x00000000c0222af0                xfrm4_extract_header
                0x00000000c0222bbc                xfrm4_rcv_encap
                0x00000000c0222be0                xfrm4_rcv
                0x00000000c0222c04                xfrm4_extract_input
                0x00000000c0222c1c                xfrm4_transport_finish
                0x00000000c0222d14                xfrm4_udp_encap_rcv
                0x00000000c0222f20                xfrm4_prepare_output
                0x00000000c0222f78                xfrm4_extract_output
                0x00000000c0222ffc                xfrm4_output
                0x00000000c022307c                xfrm_policy_walk_init
                0x00000000c0223144                xfrm_dst_ifdown
                0x00000000c02231e8                __xfrm_decode_session
                0x00000000c0223234                xfrm_policy_unregister_afinfo
                0x00000000c02232b0                xfrm_policy_register_afinfo
                0x00000000c0223378                xfrm_policy_walk_done
                0x00000000c02233c0                xfrm_policy_walk
                0x00000000c02234e4                xfrm_spd_getinfo
                0x00000000c02238b4                xfrm_policy_alloc
                0x00000000c0223ce8                xfrm_policy_delete
                0x00000000c0223d58                xfrm_policy_flush
                0x00000000c0223f88                xfrm_policy_bysel_ctx
                0x00000000c0224090                xfrm_policy_byid
                0x00000000c0224194                xfrm_policy_destroy
                0x00000000c02248b8                xfrm_policy_insert
                0x00000000c0224c14                xfrm_selector_match
                0x00000000c0224ff8                xfrm_bundle_ok
                0x00000000c0225324                __xfrm_lookup
                0x00000000c0225d14                xfrm_lookup
                0x00000000c0225d58                __xfrm_route_forward
                0x00000000c0225db4                __xfrm_policy_check
                0x00000000c02264c0                xfrm_sk_policy_insert
                0x00000000c022654c                __xfrm_sk_clone_policy
                0x00000000c022663c                xfrm_state_walk_init
                0x00000000c0226668                km_policy_notify
                0x00000000c02266c4                km_state_notify
                0x00000000c0226718                km_query
                0x00000000c0226780                km_new_mapping
                0x00000000c02267e8                km_report
                0x00000000c022685c                xfrm_state_walk_done
                0x00000000c02268a4                xfrm_state_unregister_afinfo
                0x00000000c0226904                xfrm_state_register_afinfo
                0x00000000c022695c                xfrm_unregister_km
                0x00000000c022699c                xfrm_register_km
                0x00000000c02269d8                xfrm_state_walk
                0x00000000c0226af4                xfrm_get_acqseq
                0x00000000c0226b30                xfrm_find_acq_byseq
                0x00000000c0226b64                xfrm_sad_getinfo
                0x00000000c0226be0                xfrm_unregister_mode
                0x00000000c0226c40                xfrm_register_mode
                0x00000000c0226cc4                xfrm_unregister_type
                0x00000000c0226d10                xfrm_register_type
                0x00000000c02271f0                xfrm_state_lookup
                0x00000000c02273d8                xfrm_state_lookup_byaddr
                0x00000000c02274d0                xfrm_init_state
                0x00000000c0227674                xfrm_user_policy
                0x00000000c02277d4                __xfrm_state_destroy
                0x00000000c0227840                __xfrm_state_delete
                0x00000000c0227944                xfrm_state_delete
                0x00000000c0227970                xfrm_state_delete_tunnel
                0x00000000c02279ec                xfrm_state_flush
                0x00000000c0227aec                xfrm_alloc_spi
                0x00000000c0227cdc                xfrm_stateonly_find
                0x00000000c0227fec                xfrm_state_alloc
                0x00000000c02280d4                km_policy_expired
                0x00000000c0228128                km_state_expired
                0x00000000c02285d0                xfrm_state_insert
                0x00000000c0228a24                xfrm_find_acq
                0x00000000c0228a8c                xfrm_state_add
                0x00000000c0228c60                xfrm_state_check_expire
                0x00000000c0228d48                xfrm_state_update
                0x00000000c0229018                xfrm_state_find
                0x00000000c0229714                xfrm_replay_notify
                0x00000000c0229888                xfrm_replay_check
                0x00000000c0229908                xfrm_replay_advance
                0x00000000c02299a4                xfrm_state_mtu
                0x00000000c0229a08                xfrm_state_fini
                0x00000000c0229b0c                xfrm_hash_alloc
                0x00000000c0229b7c                xfrm_hash_free
                0x00000000c0229bdc                xfrm_prepare_input
                0x00000000c0229c7c                secpath_dup
                0x00000000c0229d18                __secpath_destroy
                0x00000000c0229d88                xfrm_parse_spi
                0x00000000c0229e9c                xfrm_input
                0x00000000c022a1ec                xfrm_input_resume
                0x00000000c022a208                xfrm_inner_extract_output
                0x00000000c022a298                xfrm_output_resume
                0x00000000c022a5d8                xfrm_output
                0x00000000c022a6cc                xfrm_aalg_get_byidx
                0x00000000c022a6f4                xfrm_ealg_get_byidx
                0x00000000c022a71c                xfrm_count_auth_supported
                0x00000000c022a75c                xfrm_count_enc_supported
                0x00000000c022a79c                pskb_put
                0x00000000c022a7dc                skb_icv_walk
                0x00000000c022aa00                xfrm_probe_algs
                0x00000000c022abc0                xfrm_aead_get_byname
                0x00000000c022abfc                xfrm_calg_get_byname
                0x00000000c022ac28                xfrm_ealg_get_byname
                0x00000000c022ac54                xfrm_aalg_get_byname
                0x00000000c022ac80                xfrm_calg_get_byid
                0x00000000c022acac                xfrm_ealg_get_byid
                0x00000000c022acd8                xfrm_aalg_get_byid
                0x00000000c022adb0                xfrm_sysctl_fini
                0x00000000c022de4c                unix_inflight
                0x00000000c022def0                unix_notinflight
                0x00000000c022df70                wait_for_unix_gc
                0x00000000c022e014                unix_gc
                0x00000000c022e33c                unix_sysctl_register
                0x00000000c022e3a8                unix_sysctl_unregister
                0x00000000c022e3cc                ipv6_opt_accepted
                0x00000000c022ed24                inet6_sk_rebuild_header
                0x00000000c022ee8c                inet6_register_protosw
                0x00000000c022ef58                inet6_ioctl
                0x00000000c022f050                inet6_getname
                0x00000000c022f150                inet6_destroy_sock
                0x00000000c022f1c0                inet6_release
                0x00000000c022f200                inet6_bind
                0x00000000c022f4d0                inet6_unregister_protosw
                0x00000000c022f8e0                ipv6_dev_ac_inc
                0x00000000c022faa8                ipv6_sock_ac_join
                0x00000000c022fcd8                __ipv6_dev_ac_dec
                0x00000000c022fe60                ipv6_sock_ac_close
                0x00000000c022ff28                ipv6_sock_ac_drop
                0x00000000c023002c                ipv6_chk_acast_addr
                0x00000000c023009c                ac6_proc_init
                0x00000000c02300d0                ac6_proc_exit
                0x00000000c0230354                ip6_sk_dst_lookup
                0x00000000c0230470                ip6_dst_lookup
                0x00000000c023048c                ip6_xmit
                0x00000000c0230cd0                __ip6_local_out
                0x00000000c0230d5c                ip6_local_out
                0x00000000c0230d8c                ip6_nd_hdr
                0x00000000c0230e24                ip6_forward
                0x00000000c02314d8                ip6_find_1stfragopt
                0x00000000c023156c                ip6_output
                0x00000000c02321e4                ip6_append_data
                0x00000000c0232dc4                ip6_push_pending_frames
                0x00000000c02331d4                ip6_flush_pending_frames
                0x00000000c02332b0                ip6_rcv_finish
                0x00000000c02335f8                ipv6_rcv
                0x00000000c0233910                ip6_input
                0x00000000c0233984                ip6_mc_input
                0x00000000c0233b44                ipv6_chk_addr
                0x00000000c0233c20                ipv6_chk_prefix
                0x00000000c0233cc4                __ipv6_isatap_ifid
                0x00000000c0234e98                unregister_inet6addr_notifier
                0x00000000c0234eb8                register_inet6addr_notifier
                0x00000000c0234f9c                in6_dev_finish_destroy
                0x00000000c0235f3c                inet6_ifa_finish_destroy
                0x00000000c02360c0                ipv6_dev_get_saddr
                0x00000000c0236444                ipv6_get_lladdr
                0x00000000c02364b8                ipv6_get_ifaddr
                0x00000000c02366f8                ipv6_rcv_saddr_equal
                0x00000000c0236884                addrconf_join_solict
                0x00000000c02368d0                addrconf_leave_solict
                0x00000000c0236e34                addrconf_dad_failure
                0x00000000c0237b54                addrconf_prefix_rcv
                0x00000000c0238190                addrconf_set_dstaddr
                0x00000000c0238338                addrconf_add_ifaddr
                0x00000000c02383f8                addrconf_del_ifaddr
                0x00000000c02384a4                if6_proc_exit
                0x00000000c02384c0                inet6_ifinfo_notify
                0x00000000c0238da4                addrconf_cleanup
                0x00000000c02397e4                ipv6_addr_label
                0x00000000c023a338                ip6_dst_blackhole
                0x00000000c023a46c                ip6_route_output
                0x00000000c023a504                rt6_lookup
                0x00000000c023b268                ip6_ins_rt
                0x00000000c023b648                ip6_route_input
                0x00000000c023b708                icmp6_dst_alloc
                0x00000000c023b898                icmp6_dst_gc
                0x00000000c023b914                ip6_dst_hoplimit
                0x00000000c023b994                ip6_route_add
                0x00000000c023bf9c                ip6_del_rt
                0x00000000c023c03c                rt6_redirect
                0x00000000c023c23c                rt6_pmtu_discovery
                0x00000000c023c418                rt6_get_dflt_router
                0x00000000c023c4e0                rt6_add_dflt_router
                0x00000000c023c570                rt6_purge_dflt_routers
                0x00000000c023c5e0                ipv6_route_ioctl
                0x00000000c023c724                addrconf_dst_alloc
                0x00000000c023c8e4                rt6_ifdown
                0x00000000c023c98c                rt6_mtu_change
                0x00000000c023c9c8                rt6_dump_route
                0x00000000c023ca3c                inet6_rt_notify
                0x00000000c023cb58                ipv6_route_sysctl_init
                0x00000000c023cbd4                ip6_route_cleanup
                0x00000000c023d2fc                fib6_new_table
                0x00000000c023d310                fib6_get_table
                0x00000000c023d324                fib6_rule_lookup
                0x00000000c023d350                fib6_force_start_gc
                0x00000000c023d388                fib6_add
                0x00000000c023d92c                fib6_lookup
                0x00000000c023da80                fib6_locate
                0x00000000c023db80                fib6_del
                0x00000000c023e144                fib6_clean_all
                0x00000000c023e1b0                fib6_run_gc
                0x00000000c023e278                fib6_gc_cleanup
                0x00000000c023ea6c                ipv6_getsockopt
                0x00000000c023eb60                ip6_ra_control
                0x00000000c023f980                ipv6_setsockopt
                0x00000000c023fdac                ndisc_mc_map
                0x00000000c0240244                ndisc_build_skb
                0x00000000c024041c                ndisc_send_skb
                0x00000000c0240e18                ndisc_ifinfo_sysctl_strategy
                0x00000000c0240f78                ndisc_ifinfo_sysctl_change
                0x00000000c0241174                ndisc_send_ns
                0x00000000c024130c                ndisc_send_rs
                0x00000000c024135c                ndisc_send_redirect
                0x00000000c02418c4                ndisc_rcv
                0x00000000c0242660                ndisc_cleanup
                0x00000000c0242740                udpv6_getsockopt
                0x00000000c0242970                udpv6_destroy_sock
                0x00000000c02429d4                udpv6_sendmsg
                0x00000000c0243268                udpv6_queue_rcv_skb
                0x00000000c0243428                udpv6_recvmsg
                0x00000000c0243754                udp_v6_get_port
                0x00000000c0243770                udp6_seq_show
                0x00000000c02438d0                udpv6_setsockopt
                0x00000000c0243d74                __udp6_lib_err
                0x00000000c0243e88                __udp6_lib_rcv
                0x00000000c0244440                udp6_proc_init
                0x00000000c024445c                udp6_proc_exit
                0x00000000c0244478                udpv6_exit
                0x00000000c0244580                udplitev6_exit
                0x00000000c02445ac                udplite6_proc_exit
                0x00000000c0245c04                raw6_icmp_error
                0x00000000c0245d60                rawv6_rcv
                0x00000000c0245fe0                raw6_local_deliver
                0x00000000c024616c                raw6_proc_exit
                0x00000000c0246188                rawv6_exit
                0x00000000c02461a4                inet6_add_protocol
                0x00000000c02461e4                inet6_del_protocol
                0x00000000c02463c0                icmpv6_send
                0x00000000c02469e0                icmpv6_err_convert
                0x00000000c02471a4                icmpv6_param_prob
                0x00000000c02471e4                icmpv6_flow_init
                0x00000000c024724c                icmpv6_cleanup
                0x00000000c0247278                ipv6_icmp_sysctl_init
                0x00000000c0249e78                ip6_mc_msfget
                0x00000000c024a0bc                inet6_mc_check
                0x00000000c024a1e0                ipv6_dev_mc_inc
                0x00000000c024a508                ipv6_sock_mc_join
                0x00000000c024a6d4                __ipv6_dev_mc_dec
                0x00000000c024a794                ipv6_sock_mc_close
                0x00000000c024a894                ipv6_sock_mc_drop
                0x00000000c024aa04                ip6_mc_msfilter
                0x00000000c024acc8                ip6_mc_source
                0x00000000c024b0f8                ipv6_dev_mc_dec
                0x00000000c024b164                ipv6_is_mld
                0x00000000c024b1f0                ipv6_chk_mcast_addr
                0x00000000c024b378                igmp6_event_query
                0x00000000c024b958                igmp6_event_report
                0x00000000c024bae0                ipv6_mc_down
                0x00000000c024bb7c                ipv6_mc_up
                0x00000000c024bbb4                ipv6_mc_init_dev
                0x00000000c024bc24                ipv6_mc_destroy_dev
                0x00000000c024bc9c                igmp6_cleanup
                0x00000000c024bcb8                inet6_hash_frag
                0x00000000c024be84                ip6_frag_match
                0x00000000c024cd28                ip6_frag_init
                0x00000000c024cd6c                ip6_frag_nqueues
                0x00000000c024cd80                ip6_frag_mem
                0x00000000c024cd94                ipv6_frag_exit
                0x00000000c024e4a4                tcp6_gro_complete
                0x00000000c024e520                tcp6_gro_receive
                0x00000000c024f7cc                tcp6_proc_init
                0x00000000c024f7e8                tcp6_proc_exit
                0x00000000c024f804                tcpv6_exit
                0x00000000c024f838                ipv6_find_tlv
                0x00000000c024f8cc                ipv6_dup_options
                0x00000000c024f998                ipv6_push_nfrag_opts
                0x00000000c02502ec                ipv6_exthdrs_exit
                0x00000000c0250328                ipv6_parse_hopopts
                0x00000000c02503f4                ipv6_push_frag_opts
                0x00000000c025041c                ipv6_renew_options
                0x00000000c0250674                ipv6_fixup_options
                0x00000000c02506e4                ip6_datagram_connect
                0x00000000c0250b88                ipv6_icmp_error
                0x00000000c0250cd8                ipv6_local_error
                0x00000000c0250e4c                datagram_recv_ctl
                0x00000000c0251244                ipv6_recv_error
                0x00000000c02514cc                datagram_send_ctl
                0x00000000c0251bdc                fl6_sock_lookup
                0x00000000c025207c                fl6_free_socklist
                0x00000000c02520b8                fl6_merge_options
                0x00000000c0252148                ipv6_flowlabel_opt
                0x00000000c0252974                ip6_flowlabel_init
                0x00000000c0252990                ip6_flowlabel_cleanup
                0x00000000c0252acc                inet6_csk_xmit
                0x00000000c0252ce8                inet6_csk_reqsk_queue_hash_add
                0x00000000c0252d84                inet6_csk_search_req
                0x00000000c0252ebc                inet6_csk_bind_conflict
                0x00000000c0252f58                inet6_csk_addr2sockaddr
                0x00000000c02530b0                ipv6_sysctl_register
                0x00000000c025310c                ipv6_sysctl_unregister
                0x00000000c0253138                ipv6_static_sysctl_register
                0x00000000c0253170                ipv6_static_sysctl_unregister
                0x00000000c0253964                xfrm6_fini
                0x00000000c0253d20                xfrm6_extract_header
                0x00000000c0253d80                xfrm6_state_fini
                0x00000000c0253d9c                xfrm6_input_addr
                0x00000000c0253f50                xfrm6_rcv_spi
                0x00000000c0253f78                xfrm6_rcv
                0x00000000c0253f9c                xfrm6_extract_input
                0x00000000c0253fb4                xfrm6_transport_finish
                0x00000000c0254094                xfrm6_find_1stfragopt
                0x00000000c02540b0                xfrm6_prepare_output
                0x00000000c025410c                xfrm6_extract_output
                0x00000000c025417c                xfrm6_output
                0x00000000c0254224                nf_ip6_checksum
                0x00000000c0254448                ip6_route_me_harder
                0x00000000c02546ec                ipv6_netfilter_fini
                0x00000000c0254c4c                snmp6_register_dev
                0x00000000c0254cc4                snmp6_unregister_dev
                0x00000000c0254d20                ipv6_misc_proc_exit
                0x00000000c0254ddc                cookie_v6_init_sequence
                0x00000000c0254ef8                cookie_v6_check
                0x00000000c0255b60                ipv6_find_hdr
                0x00000000c0255d08                ip6t_do_table
                0x00000000c02562e8                ip6t_ext_hdr
                0x00000000c0256400                ip6t_unregister_table
                0x00000000c0256a64                ip6t_register_table
                0x00000000c025830c                nf_ct_frag6_gather
                0x00000000c0258cf0                nf_ct_frag6_output
                0x00000000c0258dd0                nf_ct_frag6_init
                0x00000000c0258e68                nf_ct_frag6_cleanup
                0x00000000c025b838                __ipv6_addr_type
                0x00000000c025b948                ipv6_ext_hdr
                0x00000000c025b98c                ipv6_skip_exthdr
                0x00000000c025babc                inet6_hash_connect
                0x00000000c025bb18                __inet6_hash
                0x00000000c025c048                inet6_lookup_listener
                0x00000000c025c274                __inet6_lookup_established
                0x00000000c025c654                inet6_lookup
                0x00000000c0264ab4                br_dev_xmit
                0x00000000c0264b3c                br_dev_setup
                0x00000000c0264c70                br_fdb_fini
                0x00000000c0264c90                __br_fdb_get
                0x00000000c0264ddc                br_fdb_get
                0x00000000c0264e3c                br_fdb_put
                0x00000000c026502c                br_fdb_changeaddr
                0x00000000c0265148                br_fdb_cleanup
                0x00000000c0265224                br_fdb_flush
                0x00000000c026529c                br_fdb_delete_by_port
                0x00000000c02653b4                br_fdb_fillbuf
                0x00000000c02654e4                br_fdb_insert
                0x00000000c0265520                br_fdb_update
                0x00000000c02657b8                br_dev_queue_push_xmit
                0x00000000c0265824                br_forward_finish
                0x00000000c02659cc                br_deliver
                0x00000000c0265a0c                br_forward
                0x00000000c0265a4c                br_flood_deliver
                0x00000000c0265a68                br_flood_forward
                0x00000000c0265cd8                br_port_carrier_check
                0x00000000c0265d58                br_add_bridge
                0x00000000c0265ea4                br_del_bridge
                0x00000000c0265f08                br_min_mtu
                0x00000000c0265f9c                br_features_recompute
                0x00000000c0266010                br_add_if
                0x00000000c02662e8                br_del_if
                0x00000000c0266340                br_net_exit
                0x00000000c02663d0                br_handle_frame_finish
                0x00000000c026655c                br_handle_frame
                0x00000000c0266810                br_ioctl_deviceless_stub
                0x00000000c0266a94                br_dev_ioctl
                0x00000000c0267238                br_log_state
                0x00000000c0267284                br_get_port
                0x00000000c02672cc                br_transmit_config
                0x00000000c02673fc                br_transmit_tcn
                0x00000000c026741c                br_topology_change_detection
                0x00000000c026756c                br_config_bpdu_generation
                0x00000000c02675e8                br_become_root_bridge
                0x00000000c026765c                br_become_designated_port
                0x00000000c02676ac                br_configuration_update
                0x00000000c0267920                br_port_state_selection
                0x00000000c0267a1c                br_received_config_bpdu
                0x00000000c0267c40                br_received_tcn_bpdu
                0x00000000c0267de8                br_send_config_bpdu
                0x00000000c0267f90                br_send_tcn_bpdu
                0x00000000c0267fdc                br_stp_rcv
                0x00000000c026827c                br_init_port
                0x00000000c02682c0                br_stp_enable_port
                0x00000000c02682e0                br_stp_enable_bridge
                0x00000000c0268380                br_stp_disable_port
                0x00000000c0268460                br_stp_disable_bridge
                0x00000000c02684f0                br_stp_set_enabled
                0x00000000c0268668                br_stp_change_bridge_id
                0x00000000c02687bc                br_stp_recalculate_bridge_id
                0x00000000c0268880                br_stp_set_bridge_priority
                0x00000000c026897c                br_stp_set_port_priority
                0x00000000c0268a14                br_stp_set_path_cost
                0x00000000c0268a3c                br_show_bridge_id
                0x00000000c0268d20                br_stp_timer_init
                0x00000000c0268da4                br_stp_port_timer_init
                0x00000000c0268e00                br_timer_value
                0x00000000c02691c4                br_ifinfo_notify
                0x00000000c02695f4                br_sysfs_addif
                0x00000000c0269e10                br_sysfs_addbr
                0x00000000c0269ee4                br_sysfs_delbr
                0x00000000c0269f30                rpc_call_start
                0x00000000c0269f4c                rpc_peeraddr2str
                0x00000000c0269f78                rpc_setbufsize
                0x00000000c0269fa0                rpc_max_payload
                0x00000000c0269fb8                rpc_restart_call
                0x00000000c026aba0                rpc_peeraddr
                0x00000000c026ac90                rpc_clone_client
                0x00000000c026adf4                rpc_force_rebind
                0x00000000c026b708                rpc_run_task
                0x00000000c026b774                rpc_call_null
                0x00000000c026b7ec                rpc_call_async
                0x00000000c026b85c                rpc_call_sync
                0x00000000c026b958                rpc_release_client
                0x00000000c026bad8                rpc_shutdown_client
                0x00000000c026bbcc                rpc_bind_new_program
                0x00000000c026bc68                rpc_create
                0x00000000c026c084                rpc_show_tasks
                0x00000000c026c1f0                xprt_set_retrans_timeout_def
                0x00000000c026c5f0                xprt_wait_for_buffer_space
                0x00000000c026c624                xprt_reserve_xprt
                0x00000000c026c71c                xprt_complete_rqst
                0x00000000c026c7cc                xprt_write_space
                0x00000000c026c830                xprt_update_rtt
                0x00000000c026c8c0                xprt_set_retrans_timeout_rtt
                0x00000000c026c930                xprt_wake_pending_tasks
                0x00000000c026c958                xprt_disconnect_done
                0x00000000c026c9bc                xprt_unregister_transport
                0x00000000c026ca28                xprt_register_transport
                0x00000000c026cb04                xprt_reserve_xprt_cong
                0x00000000c026ccbc                xprt_adjust_cwnd
                0x00000000c026cd8c                xprt_release_rqst_cong
                0x00000000c026cdd0                xprt_release_xprt_cong
                0x00000000c026cdfc                xprt_release_xprt
                0x00000000c026ce8c                xprt_lookup_rqst
                0x00000000c026cf10                xprt_adjust_timeout
                0x00000000c026cfec                xprt_force_disconnect
                0x00000000c026d060                xprt_conditional_disconnect
                0x00000000c026d0fc                xprt_connect
                0x00000000c026d20c                xprt_prepare_transmit
                0x00000000c026d29c                xprt_end_transmit
                0x00000000c026d2d4                xprt_transmit
                0x00000000c026d488                xprt_reserve
                0x00000000c026d59c                xprt_release
                0x00000000c026d6e0                xprt_create_transport
                0x00000000c026d8bc                xprt_put
                0x00000000c026d8d8                xprt_get
                0x00000000c026d98c                xdr_partial_copy_from_skb
                0x00000000c026db70                csum_partial_copy_to_xdr
                0x00000000c026dcac                xdr_skb_read_bits
                0x00000000c027055c                init_socket_xprt
                0x00000000c02705ac                cleanup_socket_xprt
                0x00000000c027062c                rpc_free
                0x00000000c0270698                rpc_malloc
                0x00000000c027072c                __rpc_wait_for_completion_task
                0x00000000c02707c4                rpc_exit_task
                0x00000000c027082c                rpc_destroy_wait_queue
                0x00000000c0270844                rpc_sleep_on
                0x00000000c0270b50                rpc_delay
                0x00000000c0270b80                rpc_init_wait_queue
                0x00000000c0270ea8                rpc_wake_up_status
                0x00000000c0270f14                rpc_wake_up
                0x00000000c0270f78                rpc_wake_up_next
                0x00000000c027110c                rpc_wake_up_queued_task
                0x00000000c0271138                rpc_killall_tasks
                0x00000000c02712bc                rpc_init_priority_wait_queue
                0x00000000c0271340                rpc_release_calldata
                0x00000000c02713d0                rpc_put_task
                0x00000000c027173c                rpc_execute
                0x00000000c02717dc                rpc_new_task
                0x00000000c02719b4                rpciod_up
                0x00000000c02719c8                rpciod_down
                0x00000000c02719d8                rpc_destroy_mempool
                0x00000000c0271a80                rpc_init_mempool
                0x00000000c0271ba8                rpcauth_register
                0x00000000c0271be4                rpcauth_unregister
                0x00000000c0271c68                rpcauth_init_cred
                0x00000000c0271cd4                put_rpccred
                0x00000000c0271f64                rpcauth_lookup_credcache
                0x00000000c0272168                rpcauth_init_credcache
                0x00000000c02721c0                rpcauth_generic_bind_cred
                0x00000000c0272224                rpcauth_release
                0x00000000c0272260                rpcauth_create
                0x00000000c0272308                rpcauth_clear_credcache
                0x00000000c02723e8                rpcauth_destroy_credcache
                0x00000000c027241c                rpcauth_lookupcred
                0x00000000c02724f4                rpcauth_bindcred
                0x00000000c02725c4                rpcauth_unbindcred
                0x00000000c0272620                rpcauth_marshcred
                0x00000000c0272684                rpcauth_checkverf
                0x00000000c02726e8                rpcauth_wrap_req
                0x00000000c0272784                rpcauth_unwrap_resp
                0x00000000c0272820                rpcauth_refreshcred
                0x00000000c0272884                rpcauth_invalcred
                0x00000000c02728f0                rpcauth_uptodatecred
                0x00000000c0272ef4                rpc_lookup_machine_cred
                0x00000000c0273100                rpc_lookup_cred
                0x00000000c02731e8                svc_max_payload
                0x00000000c0273348                svc_process
                0x00000000c0273bb8                svc_destroy
                0x00000000c0273d08                svc_exit_thread
                0x00000000c0273db4                svc_prepare_thread
                0x00000000c0273ed0                svc_set_num_threads
                0x00000000c02742a4                svc_create
                0x00000000c02743a8                svc_create_pooled
                0x00000000c0274514                svc_pool_for_cpu
                0x00000000c0274570                svc_register
                0x00000000c02746e4                svc_sock_update_bufs
                0x00000000c02762d4                svc_addsock
                0x00000000c0276418                svc_sock_names
                0x00000000c02764d8                svc_init_xprt_sock
                0x00000000c0276500                svc_cleanup_xprt_sock
                0x00000000c0276528                svc_set_client
                0x00000000c0276544                svc_auth_register
                0x00000000c027657c                svc_auth_unregister
                0x00000000c02765a0                auth_domain_lookup
                0x00000000c027668c                auth_domain_find
                0x00000000c02766a4                svc_authenticate
                0x00000000c0276768                auth_domain_put
                0x00000000c02767c8                svc_authorise
                0x00000000c02767fc                auth_unix_forget_old
                0x00000000c0277484                auth_unix_lookup
                0x00000000c02775cc                svcauth_unix_set_client
                0x00000000c02777a8                svcauth_unix_purge
                0x00000000c02777c4                unix_domain_find
                0x00000000c0277c58                auth_unix_add_addr
                0x00000000c0277cb4                svcauth_unix_info_release
                0x00000000c02780c4                rpcb_getport_async
                0x00000000c027852c                rpcb_getport_sync
                0x00000000c02787c0                rpcb_register
                0x00000000c0278898                rpcb_v4_register
                0x00000000c0278ab4                rpc_init_rtt
                0x00000000c0278af8                rpc_update_rtt
                0x00000000c0278b5c                rpc_calc_rto
                0x00000000c0278b98                xdr_encode_pages
                0x00000000c0278c0c                xdr_inline_pages
                0x00000000c0278c54                xdr_init_decode
                0x00000000c0278c8c                xdr_buf_from_iov
                0x00000000c0278cd4                xdr_buf_subsegment
                0x00000000c0278de4                xdr_inline_decode
                0x00000000c0278e28                xdr_reserve_space
                0x00000000c0278e8c                xdr_process_buf
                0x00000000c0279074                xdr_write_pages
                0x00000000c0279114                xdr_init_encode
                0x00000000c02792ec                read_bytes_from_xdr_buf
                0x00000000c0279338                xdr_decode_netobj
                0x00000000c027937c                xdr_decode_string_inplace
                0x00000000c02793c0                xdr_decode_word
                0x00000000c0279408                xdr_buf_read_netobj
                0x00000000c02794d4                xdr_encode_netobj
                0x00000000c027985c                xdr_shift_buf
                0x00000000c0279870                xdr_read_pages
                0x00000000c027999c                xdr_enter_page
                0x00000000c0279a04                xdr_encode_opaque_fixed
                0x00000000c0279a58                xdr_encode_opaque
                0x00000000c0279a80                xdr_encode_string
                0x00000000c0279ab0                write_bytes_to_xdr_buf
                0x00000000c0279b54                xdr_encode_word
                0x00000000c027a0a0                xdr_encode_array2
                0x00000000c027a0e8                xdr_decode_array2
                0x00000000c027a314                qword_add
                0x00000000c027a3e8                qword_addhex
                0x00000000c027a4a8                qword_get
                0x00000000c027af64                sunrpc_cache_lookup
                0x00000000c027b298                cache_flush
                0x00000000c027b2d0                cache_purge
                0x00000000c027b490                cache_check
                0x00000000c027b96c                sunrpc_cache_update
                0x00000000c027bb38                cache_unregister
                0x00000000c027bbd4                cache_register
                0x00000000c027bd60                cache_clean_deferred
                0x00000000c027c514                rpc_unlink
                0x00000000c027c760                rpc_mkpipe
                0x00000000c027ca6c                rpc_queue_upcall
                0x00000000c027ce5c                rpc_get_mount
                0x00000000c027ce90                rpc_put_mount
                0x00000000c027ceb4                rpc_mkdir
                0x00000000c027d100                rpc_rmdir
                0x00000000c027d1a0                register_rpc_pipefs
                0x00000000c027d218                unregister_rpc_pipefs
                0x00000000c027d2cc                svc_print_addr
                0x00000000c027d370                svc_xprt_names
                0x00000000c027d464                svc_find_xprt
                0x00000000c027d538                svc_create_xprt
                0x00000000c027d718                svc_unreg_xprt_class
                0x00000000c027d854                svc_wake_up
                0x00000000c027d8d8                svc_xprt_enqueue
                0x00000000c027db58                svc_reserve
                0x00000000c027dba8                svc_xprt_init
                0x00000000c027dc3c                svc_xprt_put
                0x00000000c027dd04                svc_drop
                0x00000000c027dfc4                svc_reg_xprt_class
                0x00000000c027e06c                svc_xprt_copy_addrs
                0x00000000c027e0c8                svc_xprt_received
                0x00000000c027e118                svc_print_xprts
                0x00000000c027e1a4                svc_port_is_privileged
                0x00000000c027e1ec                svc_send
                0x00000000c027e290                svc_delete_xprt
                0x00000000c027e380                svc_close_xprt
                0x00000000c027e3fc                svc_recv
                0x00000000c027eb1c                svc_close_all
                0x00000000c027ebb8                svc_proc_unregister
                0x00000000c027ebd8                rpc_proc_unregister
                0x00000000c027ec20                rpc_print_iostats
                0x00000000c027ee78                svc_seq_show
                0x00000000c027ef68                rpc_free_iostats
                0x00000000c027ef7c                rpc_alloc_iostats
                0x00000000c027efac                rpc_count_iostats
                0x00000000c027f0a0                rpc_proc_init
                0x00000000c027f108                rpc_proc_register
                0x00000000c027f178                svc_proc_register
                0x00000000c027f1e8                rpc_proc_exit
                0x00000000c027f528                rpc_register_sysctl
                0x00000000c027f55c                rpc_unregister_sysctl
                0x00000000c027f58c                vlan_dev_real_dev
                0x00000000c027f5a0                vlan_dev_vlan_id
                0x00000000c027f6d0                vlan_gro_frags
                0x00000000c027f760                vlan_gro_receive
                0x00000000c027f7c0                __vlan_hwaccel_rx
                0x00000000c027f8a8                vlan_hwaccel_do_receive
                0x00000000c027fb7c                __find_vlan_dev
                0x00000000c027fbb4                unregister_vlan_dev
                0x00000000c02800d8                vlan_check_real_dev
                0x00000000c028017c                register_vlan_dev
                0x00000000c02811f8                vlan_skb_recv
                0x00000000c0281448                vlan_dev_set_ingress_priority
                0x00000000c02814b0                vlan_dev_set_egress_priority
                0x00000000c028159c                vlan_dev_change_flags
                0x00000000c02815d8                vlan_dev_get_realdev_name
                0x00000000c02815fc                vlan_setup
                0x00000000c0281f08                vlan_proc_cleanup
                0x00000000c0281f90                vlan_proc_init
                0x00000000c0282054                vlan_proc_add_dev
                0x00000000c02820dc                vlan_proc_rem_dev
                0x00000000c02821fc                unregister_net_sysctl_table
                0x00000000c0282210                register_net_sysctl_rotable
                0x00000000c028223c                register_net_sysctl_table
 .text          0x00000000c028230c      0x470 lib/lib.a(klist.o)
                0x00000000c028230c                klist_init
                0x00000000c0282324                klist_node_attached
                0x00000000c0282340                klist_iter_init_node
                0x00000000c0282364                klist_iter_init
                0x00000000c028237c                klist_next
                0x00000000c028249c                klist_iter_exit
                0x00000000c02824cc                klist_del
                0x00000000c028259c                klist_remove
                0x00000000c0282684                klist_add_before
                0x00000000c02826c8                klist_add_after
                0x00000000c0282708                klist_add_tail
                0x00000000c0282744                klist_add_head
 .text          0x00000000c028277c        0x0 .tmp_kallsyms2.o
 *(.ref.text)
 .ref.text      0x00000000c028277c       0x70 init/built-in.o
 .ref.text      0x00000000c02827ec      0x29c mm/built-in.o
 .ref.text      0x00000000c0282a88       0x2c fs/built-in.o
 .ref.text      0x00000000c0282ab4       0x18 drivers/built-in.o
 .ref.text      0x00000000c0282acc      0x7ec net/built-in.o
                0x00000000c0282f4c                fib_proc_exit
 *(.text.init.refok)
 *(.exit.text.refok)
 *(.devinit.text)
 .devinit.text  0x00000000c02832b8      0x228 arch/arm/mach-goldfish/built-in.o
 .devinit.text  0x00000000c02834e0      0xc84 drivers/built-in.o
 *(.devexit.text)
 .devexit.text  0x00000000c0284164       0x68 arch/arm/mach-goldfish/built-in.o
 .devexit.text  0x00000000c02841cc      0x1a8 drivers/built-in.o
 *(.text.unlikely)
 .text.unlikely
                0x00000000c0284374      0x124 init/built-in.o
 .text.unlikely
                0x00000000c0284498       0x14 arch/arm/kernel/built-in.o
                0x00000000c0284498                dump_stack
 .text.unlikely
                0x00000000c02844ac      0x460 kernel/built-in.o
                0x00000000c0284554                panic
                0x00000000c028465c                printk
 .text.unlikely
                0x00000000c028490c      0xa84 mm/built-in.o
 .text.unlikely
                0x00000000c0285390      0x4a0 fs/built-in.o
                0x00000000c02856b8                fat_fs_error
 .text.unlikely
                0x00000000c0285830       0x74 crypto/built-in.o
 .text.unlikely
                0x00000000c02858a4       0x38 block/built-in.o
 .text.unlikely
                0x00000000c02858dc      0x324 drivers/built-in.o
 .text.unlikely
                0x00000000c0285c00      0x4e0 net/built-in.o
                0x00000000c02860e0                . = ALIGN (0x8)
                0x00000000c02860e0                __sched_text_start = .
 *(.sched.text)
 .sched.text    0x00000000c02860e0     0x1c84 kernel/built-in.o
                0x00000000c0286180                sleep_on_timeout
                0x00000000c028619c                sleep_on
                0x00000000c02861b8                interruptible_sleep_on_timeout
                0x00000000c02861d4                interruptible_sleep_on
                0x00000000c0286340                wait_for_completion
                0x00000000c028635c                wait_for_completion_timeout
                0x00000000c0286374                wait_for_completion_interruptible
                0x00000000c0286398                wait_for_completion_interruptible_timeout
                0x00000000c02863b0                wait_for_completion_killable
                0x00000000c02863d4                schedule
                0x00000000c0286798                io_schedule
                0x00000000c02867dc                _cond_resched
                0x00000000c0286838                cond_resched_softirq
                0x00000000c02868ac                yield
                0x00000000c02868d8                io_schedule_timeout
                0x00000000c028691c                console_conditional_schedule
                0x00000000c0286944                schedule_timeout
                0x00000000c0286a08                schedule_timeout_uninterruptible
                0x00000000c0286a34                schedule_timeout_killable
                0x00000000c0286a60                schedule_timeout_interruptible
                0x00000000c0286a8c                __wait_on_bit
                0x00000000c0286b34                out_of_line_wait_on_bit
                0x00000000c0286bc0                __wait_on_bit_lock
                0x00000000c0286c64                out_of_line_wait_on_bit_lock
                0x00000000c0286cf0                mutex_lock
                0x00000000c0286d18                mutex_trylock
                0x00000000c0286e30                mutex_lock_interruptible
                0x00000000c0286f58                mutex_lock_killable
                0x00000000c0286fc0                mutex_unlock
                0x00000000c02871b0                hrtimer_nanosleep_restart
                0x00000000c0287228                schedule_hrtimeout_range
                0x00000000c0287378                schedule_hrtimeout
                0x00000000c0287394                down_write
                0x00000000c02873a8                down_read
                0x00000000c02876dc                rt_mutex_trylock
                0x00000000c0287734                rt_mutex_unlock
                0x00000000c0287d24                rt_mutex_lock
                0x00000000c0287d44                rt_mutex_lock_interruptible
 .sched.text    0x00000000c0287d64      0x19c lib/lib.a(rwsem-spinlock.o)
                0x00000000c0287d64                __down_write_nested
                0x00000000c0287e24                __down_write
                0x00000000c0287e3c                __down_read
                0x00000000c0287f00                __sched_text_end = .
                0x00000000c0287f00                . = ALIGN (0x8)
                0x00000000c0287f00                __lock_text_start = .
 *(.spinlock.text)
                0x00000000c0287f00                __lock_text_end = .
                0x00000000c0287f00                . = ALIGN (0x8)
                0x00000000c0287f00                __kprobes_text_start = .
 *(.kprobes.text)
                0x00000000c0287f00                __kprobes_text_end = .
 *(.fixup)
 .fixup         0x00000000c0287f00      0x228 arch/arm/kernel/built-in.o
 .fixup         0x00000000c0288128      0x194 arch/arm/mm/built-in.o
 .fixup         0x00000000c02882bc      0x128 kernel/built-in.o
 .fixup         0x00000000c02883e4       0x28 mm/built-in.o
 .fixup         0x00000000c028840c      0x1b8 fs/built-in.o
 .fixup         0x00000000c02885c4        0x4 arch/arm/lib/lib.a(clear_user.o)
 .fixup         0x00000000c02885c8       0x28 arch/arm/lib/lib.a(copy_from_user.o)
 .fixup         0x00000000c02885f0       0x1c arch/arm/lib/lib.a(copy_to_user.o)
 *fill*         0x00000000c028860c        0x4 00
 .fixup         0x00000000c0288610       0x30 arch/arm/lib/lib.a(csumpartialcopyuser.o)
 .fixup         0x00000000c0288640       0x10 arch/arm/lib/lib.a(strncpy_from_user.o)
 .fixup         0x00000000c0288650        0x8 arch/arm/lib/lib.a(strnlen_user.o)
 .fixup         0x00000000c0288658        0xc lib/built-in.o
 .fixup         0x00000000c0288664      0x1c8 drivers/built-in.o
 .fixup         0x00000000c028882c       0x24 net/built-in.o
 *(.gnu.warning)
 *(.rodata)
 .rodata        0x00000000c0288850      0x434 init/built-in.o
                0x00000000c028885f                linux_proc_banner
                0x00000000c02888b9                linux_banner
 .rodata        0x00000000c0288c84      0x150 arch/arm/kernel/built-in.o
                0x00000000c0288d98                cpuinfo_op
                0x00000000c0288da8                sigreturn_codes
 .rodata        0x00000000c0288dd4       0x78 arch/arm/mm/built-in.o
 .rodata        0x00000000c0288e4c       0x6f arch/arm/vfp/built-in.o
 *fill*         0x00000000c0288ebb        0x5 00
 .rodata        0x00000000c0288ec0     0x27df kernel/built-in.o
                0x00000000c028924c                cpu_active_mask
                0x00000000c0289250                cpu_present_mask
                0x00000000c0289254                cpu_online_mask
                0x00000000c0289258                cpu_possible_mask
                0x00000000c028925c                cpu_all_bits
                0x00000000c0289260                cpu_bit_bitmap
                0x00000000c02893cc                __cap_init_eff_set
                0x00000000c02893d4                __cap_full_set
                0x00000000c02893dc                __cap_empty_set
 *fill*         0x00000000c028b69f        0x1 00
 .rodata        0x00000000c028b6a0      0x894 mm/built-in.o
 .rodata        0x00000000c028bf34     0x6758 fs/built-in.o
                0x00000000c028bf40                generic_ro_fops
                0x00000000c028bfa8                def_chr_fops
                0x00000000c028c038                rdwr_pipefifo_fops
                0x00000000c028c0a0                write_pipefifo_fops
                0x00000000c028c108                read_pipefifo_fops
                0x00000000c028c178                page_symlink_inode_operations
                0x00000000c028c1ec                def_fifo_fops
                0x00000000c028c400                mountstats_op
                0x00000000c028c410                mountinfo_op
                0x00000000c028c420                mounts_op
                0x00000000c028c478                simple_dir_inode_operations
                0x00000000c028c4d4                simple_dir_operations
                0x00000000c028c610                def_blk_fops
                0x00000000c028cb18                proc_pagemap_operations
                0x00000000c028cb80                proc_clear_refs_operations
                0x00000000c028cbe8                proc_smaps_operations
                0x00000000c028cc50                proc_maps_operations
                0x00000000c028e518                proc_net_operations
                0x00000000c028e580                proc_net_inode_operations
                0x00000000c028e7f8                sysfs_file_operations
                0x00000000c028e860                sysfs_dir_operations
                0x00000000c028e8c8                sysfs_dir_inode_operations
                0x00000000c028e924                sysfs_symlink_inode_operations
                0x00000000c028e9dc                bin_fops
                0x00000000c028eb50                ramfs_file_inode_operations
                0x00000000c028ebac                ramfs_file_operations
                0x00000000c028ec14                ramfs_aops
                0x00000000c028ec78                fat_dir_operations
                0x00000000c028ed00                fat_file_inode_operations
                0x00000000c028ed5c                fat_file_operations
                0x00000000c02918e4                smb_dir_inode_operations_unix
                0x00000000c0291940                smb_dir_inode_operations
                0x00000000c029199c                smb_dir_operations
                0x00000000c0291afc                smb_file_inode_operations
                0x00000000c0291b58                smb_file_operations
                0x00000000c0291bc0                smb_file_aops
                0x00000000c0291c00                smb_link_inode_operations
                0x00000000c0291cb0                fuse_dev_operations
 .rodata        0x00000000c029268c       0xd0 ipc/built-in.o
 .rodata        0x00000000c029275c     0xbdcc crypto/built-in.o
                0x00000000c02927d4                crypto_aead_type
                0x00000000c02927fc                crypto_nivaead_type
                0x00000000c0292824                crypto_givcipher_type
                0x00000000c029284c                crypto_ablkcipher_type
                0x00000000c0292874                crypto_blkcipher_type
                0x00000000c029289c                crypto_hash_type
                0x00000000c02928c4                crypto_ahash_type
                0x00000000c029a0d8                crypto_fl_tab
                0x00000000c029b100                crypto_ft_tab
                0x00000000c029c100                crypto_it_tab
                0x00000000c029d100                crypto_il_tab
                0x00000000c029e500                crypto_rng_type
 .rodata        0x00000000c029e528      0x218 block/built-in.o
                0x00000000c029e738                scsi_command_size_tbl
 .rodata        0x00000000c029e740       0x2c lib/lib.a(kobject.o)
 .rodata        0x00000000c029e76c       0x18 lib/lib.a(kobject_uevent.o)
 .rodata        0x00000000c029e784        0xc lib/lib.a(ratelimit.o)
 .rodata        0x00000000c029e790       0x10 lib/lib.a(vsprintf.o)
 .rodata        0x00000000c029e7a0      0xb88 lib/built-in.o
                0x00000000c029e7a0                hex_asc
                0x00000000c029e80c                byte_rev_table
 .rodata        0x00000000c029f328     0x57a8 drivers/built-in.o
                0x00000000c02a010c                vesa_modes
                0x00000000c02a0884                dummy_con
                0x00000000c02a0cdc                urandom_fops
                0x00000000c02a0d44                random_fops
                0x00000000c02a1000                tty_ldiscs_proc_fops
                0x00000000c02a14f8                NR_TYPES
                0x00000000c02a14fc                max_vals
 *fill*         0x00000000c02a4ad0       0x10 00
 .rodata        0x00000000c02a4ae0     0x712c net/built-in.o
                0x00000000c02a4b48                bad_sock_fops
                0x00000000c02a4f1c                ifla_policy
                0x00000000c02a5040                eth_header_ops
                0x00000000c02a532c                nf_ct_port_nla_policy
                0x00000000c02a9094                ip_tos2prio
                0x00000000c02a90a4                inet_csk_timer_bug_msg
                0x00000000c02a92b4                inet_dgram_ops
                0x00000000c02a930c                inet_stream_ops
                0x00000000c02a94ac                rtm_ipv4_policy
                0x00000000c02a9f78                nf_nat_unknown_protocol
                0x00000000c02a9f94                nf_nat_protocol_tcp
                0x00000000c02a9fb0                nf_nat_protocol_udp
                0x00000000c02a9fcc                nf_nat_protocol_icmp
                0x00000000c02aa3ec                inet6_dgram_ops
                0x00000000c02aa444                inet6_stream_ops
                0x00000000c02aa524                in6addr_linklocal_allrouters
                0x00000000c02aa5ac                in6addr_linklocal_allnodes
                0x00000000c02aa5dc                in6addr_any
                0x00000000c02aa5ec                in6addr_loopback
                0x00000000c02ab360                br_group_address
                0x00000000c02ab4ac                authnull_ops
                0x00000000c02ab518                authunix_ops
                0x00000000c02ab910                vlan_fullname
                0x00000000c02ab924                vlan_version
 *fill*         0x00000000c02abc0c        0x4 00
 .rodata        0x00000000c02abc10    0x4ba30 .tmp_kallsyms2.o
                0x00000000c02abc10                kallsyms_addresses
                0x00000000c02c0290                kallsyms_num_syms
                0x00000000c02c02a0                kallsyms_names
                0x00000000c02f6f70                kallsyms_markers
                0x00000000c02f70c0                kallsyms_token_table
                0x00000000c02f7440                kallsyms_token_index
 *(.rodata.*)
 .rodata.str1.1
                0x00000000c02f7640      0xc5f init/built-in.o
                                        0xe31 (size before relaxing)
 .rodata.str1.1
                0x00000000c02f829f      0xc3b arch/arm/kernel/built-in.o
                                        0xca8 (size before relaxing)
 .rodata.str1.1
                0x00000000c02f8eda      0xd23 arch/arm/mm/built-in.o
                                        0xd65 (size before relaxing)
 .rodata.str1.1
                0x00000000c02f9bfd      0x19e arch/arm/mach-goldfish/built-in.o
                                        0x1d8 (size before relaxing)
 .rodata.str1.1
                0x00000000c02f9d9b      0x19a arch/arm/vfp/built-in.o
                                        0x1bb (size before relaxing)
 .rodata.str1.1
                0x00000000c02f9f35     0x3a38 kernel/built-in.o
                                       0x3d03 (size before relaxing)
 .rodata.str1.1
                0x00000000c02fd96d     0x1ed8 mm/built-in.o
                                       0x202d (size before relaxing)
 .rodata.str1.1
                0x00000000c02ff845     0x8c8f fs/built-in.o
                                       0x9b60 (size before relaxing)
 .rodata.str1.1
                0x00000000c03084d4      0x295 ipc/built-in.o
                                        0x2be (size before relaxing)
 .rodata.str1.1
                0x00000000c0308769       0x14 security/built-in.o
                                         0x1e (size before relaxing)
 .rodata.str1.1
                0x00000000c030877d     0x4015 crypto/built-in.o
                                       0x44b0 (size before relaxing)
 .rodata.str1.1
                0x00000000c030c792      0xa63 block/built-in.o
                                        0xb32 (size before relaxing)
 .rodata.str1.1
                0x00000000c030d1f5       0x8a lib/lib.a(idr.o)
 .rodata.str1.1
                0x00000000c030d27f      0x27f lib/lib.a(kobject.o)
                                        0x282 (size before relaxing)
 .rodata.str1.1
                0x00000000c030d4fe       0xd6 lib/lib.a(kobject_uevent.o)
                                        0x11d (size before relaxing)
 .rodata.str1.1
                0x00000000c030d5d4        0xb lib/lib.a(kref.o)
 .rodata.str1.1
                0x00000000c030d5df       0x10 lib/lib.a(prio_tree.o)
 .rodata.str1.1
                0x00000000c030d5ef        0xb lib/lib.a(proportions.o)
 .rodata.str1.1
                0x00000000c030d5fa       0x21 lib/lib.a(radix-tree.o)
 .rodata.str1.1
                0x00000000c030d61b       0x20 lib/lib.a(ratelimit.o)
 .rodata.str1.1
                0x00000000c030d63b        0xd lib/lib.a(string.o)
 .rodata.str1.1
                0x00000000c030d648       0x1d lib/lib.a(vsprintf.o)
 .rodata.str1.1
                0x00000000c030d665       0xe4 lib/built-in.o
                                        0x11c (size before relaxing)
 .rodata.str1.1
                0x00000000c030d749     0x8fa9 drivers/built-in.o
                                       0x9790 (size before relaxing)
 .rodata.str1.1
                0x00000000c03166f2     0xc445 net/built-in.o
                                       0xdaca (size before relaxing)
 .rodata.str1.1
                0x00000000c0322b37        0xc lib/lib.a(klist.o)
 *(.glue_7)
 .glue_7        0x0000000000000000        0x0 linker stubs
 *(.glue_7t)
 .glue_7t       0x0000000000000000        0x0 linker stubs
 *(.got)

.vfp11_veneer   0x00000000c0322b44        0x0 load address 0x00000000c0322b43
 .vfp11_veneer  0x0000000000000000        0x0 linker stubs

.v4_bx          0x00000000c0322b44        0x0 load address 0x00000000c0322b43
 .v4_bx         0x0000000000000000        0x0 linker stubs

.text.init      0x00000000c0322b44       0xd0
 .text.init     0x00000000c0322b44       0xd0 arch/arm/mm/built-in.o
                0x00000000c0322b44                v7wbi_tlb_fns
                0x00000000c0322bdc                v7_processor_functions
                0x00000000c0323000                . = ALIGN (0x1000)

.rodata         0x00000000c0323000        0x0
                0x00000000c0323000                __start_rodata = .
 *(.rodata)
 *(.rodata.*)
 *(__vermagic)
 *(__markers_strings)
 *(__tracepoints_strings)

.rodata1
 *(.rodata1)

.pci_fixup      0x00000000c0323000        0x0
                0x00000000c0323000                __start_pci_fixups_early = .
 *(.pci_fixup_early)
                0x00000000c0323000                __end_pci_fixups_early = .
                0x00000000c0323000                __start_pci_fixups_header = .
 *(.pci_fixup_header)
                0x00000000c0323000                __end_pci_fixups_header = .
                0x00000000c0323000                __start_pci_fixups_final = .
 *(.pci_fixup_final)
                0x00000000c0323000                __end_pci_fixups_final = .
                0x00000000c0323000                __start_pci_fixups_enable = .
 *(.pci_fixup_enable)
                0x00000000c0323000                __end_pci_fixups_enable = .
                0x00000000c0323000                __start_pci_fixups_resume = .
 *(.pci_fixup_resume)
                0x00000000c0323000                __end_pci_fixups_resume = .
                0x00000000c0323000                __start_pci_fixups_resume_early = .
 *(.pci_fixup_resume_early)
                0x00000000c0323000                __end_pci_fixups_resume_early = .
                0x00000000c0323000                __start_pci_fixups_suspend = .
 *(.pci_fixup_suspend)
                0x00000000c0323000                __end_pci_fixups_suspend = .

.builtin_fw     0x00000000c0323000        0x0
                0x00000000c0323000                __start_builtin_fw = .
 *(.builtin_fw)
                0x00000000c0323000                __end_builtin_fw = .

.rio_route      0x00000000c0323000        0x0
                0x00000000c0323000                __start_rio_route_ops = .
 *(.rio_route_ops)
                0x00000000c0323000                __end_rio_route_ops = .

__ksymtab       0x00000000c0323000     0x45b0
                0x00000000c0323000                __start___ksymtab = .
 *(__ksymtab)
 __ksymtab      0x00000000c0323000       0x10 arch/arm/kernel/init_task.o
 __ksymtab      0x00000000c0323010       0x18 init/built-in.o
 __ksymtab      0x00000000c0323028      0x300 arch/arm/kernel/built-in.o
 __ksymtab      0x00000000c0323328       0xb8 arch/arm/mm/built-in.o
 __ksymtab      0x00000000c03233e0      0x9a8 kernel/built-in.o
 __ksymtab      0x00000000c0323d88      0x4f0 mm/built-in.o
 __ksymtab      0x00000000c0324278      0xc80 fs/built-in.o
 __ksymtab      0x00000000c0324ef8        0x8 security/built-in.o
 __ksymtab      0x00000000c0324f00      0x340 block/built-in.o
 __ksymtab      0x00000000c0325240       0x10 lib/lib.a(argv_split.o)
 __ksymtab      0x00000000c0325250       0x18 lib/lib.a(cmdline.o)
 __ksymtab      0x00000000c0325268        0x8 lib/lib.a(ctype.o)
 __ksymtab      0x00000000c0325270        0x8 lib/lib.a(dec_and_lock.o)
 __ksymtab      0x00000000c0325278       0x80 lib/lib.a(idr.o)
 __ksymtab      0x00000000c03252f8        0x8 lib/lib.a(int_sqrt.o)
 __ksymtab      0x00000000c0325300        0x8 lib/lib.a(irq_regs.o)
 __ksymtab      0x00000000c0325308       0x40 lib/lib.a(kobject.o)
 __ksymtab      0x00000000c0325348       0x20 lib/lib.a(kref.o)
 __ksymtab      0x00000000c0325368       0x68 lib/lib.a(radix-tree.o)
 __ksymtab      0x00000000c03253d0        0x8 lib/lib.a(ratelimit.o)
 __ksymtab      0x00000000c03253d8       0x38 lib/lib.a(rbtree.o)
 __ksymtab      0x00000000c0325410       0x48 lib/lib.a(rwsem-spinlock.o)
 __ksymtab      0x00000000c0325458       0xb8 lib/lib.a(string.o)
 __ksymtab      0x00000000c0325510       0x78 lib/lib.a(vsprintf.o)
 __ksymtab      0x00000000c0325588      0x288 lib/built-in.o
 __ksymtab      0x00000000c0325810      0x788 drivers/built-in.o
 __ksymtab      0x00000000c0325f98     0x1618 net/built-in.o
                0x00000000c03275b0                __stop___ksymtab = .

__ksymtab_gpl   0x00000000c03275b0     0x2280
                0x00000000c03275b0                __start___ksymtab_gpl = .
 *(__ksymtab_gpl)
 __ksymtab_gpl  0x00000000c03275b0        0x8 init/built-in.o
 __ksymtab_gpl  0x00000000c03275b8       0x10 arch/arm/kernel/built-in.o
 __ksymtab_gpl  0x00000000c03275c8      0x3f0 kernel/built-in.o
 __ksymtab_gpl  0x00000000c03279b8       0xc8 mm/built-in.o
 __ksymtab_gpl  0x00000000c0327a80      0x3a0 fs/built-in.o
 __ksymtab_gpl  0x00000000c0327e20      0x308 crypto/built-in.o
 __ksymtab_gpl  0x00000000c0328128       0xf0 block/built-in.o
 __ksymtab_gpl  0x00000000c0328218       0x28 lib/lib.a(kobject.o)
 __ksymtab_gpl  0x00000000c0328240       0x18 lib/lib.a(kobject_uevent.o)
 __ksymtab_gpl  0x00000000c0328258       0x18 lib/built-in.o
 __ksymtab_gpl  0x00000000c0328270      0x818 drivers/built-in.o
 __ksymtab_gpl  0x00000000c0328a88      0xd48 net/built-in.o
 __ksymtab_gpl  0x00000000c03297d0       0x60 lib/lib.a(klist.o)
                0x00000000c0329830                __stop___ksymtab_gpl = .

__ksymtab_unused
                0x00000000c0329830        0x0
                0x00000000c0329830                __start___ksymtab_unused = .
 *(__ksymtab_unused)
                0x00000000c0329830                __stop___ksymtab_unused = .

__ksymtab_unused_gpl
                0x00000000c0329830        0x0
                0x00000000c0329830                __start___ksymtab_unused_gpl = .
 *(__ksymtab_unused_gpl)
                0x00000000c0329830                __stop___ksymtab_unused_gpl = .

__ksymtab_gpl_future
                0x00000000c0329830        0x0
                0x00000000c0329830                __start___ksymtab_gpl_future = .
 *(__ksymtab_gpl_future)
                0x00000000c0329830                __stop___ksymtab_gpl_future = .

__kcrctab       0x00000000c0329830        0x0
                0x00000000c0329830                __start___kcrctab = .
 *(__kcrctab)
                0x00000000c0329830                __stop___kcrctab = .

__kcrctab_gpl   0x00000000c0329830        0x0
                0x00000000c0329830                __start___kcrctab_gpl = .
 *(__kcrctab_gpl)
                0x00000000c0329830                __stop___kcrctab_gpl = .

__kcrctab_unused
                0x00000000c0329830        0x0
                0x00000000c0329830                __start___kcrctab_unused = .
 *(__kcrctab_unused)
                0x00000000c0329830                __stop___kcrctab_unused = .

__kcrctab_unused_gpl
                0x00000000c0329830        0x0
                0x00000000c0329830                __start___kcrctab_unused_gpl = .
 *(__kcrctab_unused_gpl)
                0x00000000c0329830                __stop___kcrctab_unused_gpl = .

__kcrctab_gpl_future
                0x00000000c0329830        0x0
                0x00000000c0329830                __start___kcrctab_gpl_future = .
 *(__kcrctab_gpl_future)
                0x00000000c0329830                __stop___kcrctab_gpl_future = .

__ksymtab_strings
                0x00000000c0329830     0xdf7b
 *(__ksymtab_strings)
 __ksymtab_strings
                0x00000000c0329830       0x12 arch/arm/kernel/init_task.o
 __ksymtab_strings
                0x00000000c0329842       0x37 init/built-in.o
 __ksymtab_strings
                0x00000000c0329879      0x517 arch/arm/kernel/built-in.o
 __ksymtab_strings
                0x00000000c0329d90      0x174 arch/arm/mm/built-in.o
 __ksymtab_strings
                0x00000000c0329f04     0x1e03 kernel/built-in.o
 __ksymtab_strings
                0x00000000c032bd07      0xc29 mm/built-in.o
 __ksymtab_strings
                0x00000000c032c930     0x1f6f fs/built-in.o
 __ksymtab_strings
                0x00000000c032e89f       0x11 security/built-in.o
 __ksymtab_strings
                0x00000000c032e8b0      0x746 crypto/built-in.o
 __ksymtab_strings
                0x00000000c032eff6      0x988 block/built-in.o
 __ksymtab_strings
                0x00000000c032f97e       0x15 lib/lib.a(argv_split.o)
 __ksymtab_strings
                0x00000000c032f993       0x20 lib/lib.a(cmdline.o)
 __ksymtab_strings
                0x00000000c032f9b3        0x7 lib/lib.a(ctype.o)
 __ksymtab_strings
                0x00000000c032f9ba       0x15 lib/lib.a(dec_and_lock.o)
 __ksymtab_strings
                0x00000000c032f9cf       0xc5 lib/lib.a(idr.o)
 __ksymtab_strings
                0x00000000c032fa94        0x9 lib/lib.a(int_sqrt.o)
 __ksymtab_strings
                0x00000000c032fa9d       0x14 lib/lib.a(irq_regs.o)
 __ksymtab_strings
                0x00000000c032fab1       0xcc lib/lib.a(kobject.o)
 __ksymtab_strings
                0x00000000c032fb7d       0x31 lib/lib.a(kobject_uevent.o)
 __ksymtab_strings
                0x00000000c032fbae       0x25 lib/lib.a(kref.o)
 __ksymtab_strings
                0x00000000c032fbd3      0x11d lib/lib.a(radix-tree.o)
 __ksymtab_strings
                0x00000000c032fcf0        0xc lib/lib.a(ratelimit.o)
 __ksymtab_strings
                0x00000000c032fcfc       0x4a lib/lib.a(rbtree.o)
 __ksymtab_strings
                0x00000000c032fd46       0x8a lib/lib.a(rwsem-spinlock.o)
 __ksymtab_strings
                0x00000000c032fdd0       0xbd lib/lib.a(string.o)
 __ksymtab_strings
                0x00000000c032fe8d       0xb1 lib/lib.a(vsprintf.o)
 __ksymtab_strings
                0x00000000c032ff3e      0x4c4 lib/built-in.o
 __ksymtab_strings
                0x00000000c0330402     0x2372 drivers/built-in.o
 __ksymtab_strings
                0x00000000c0332774     0x4f82 net/built-in.o
 __ksymtab_strings
                0x00000000c03376f6       0xb5 lib/lib.a(klist.o)

__init_rodata
 *(.ref.rodata)
 *(.devinit.rodata)
 *(.devexit.rodata)

__param         0x00000000c03377ac      0x854
                0x00000000c03377ac                __start___param = .
 *(__param)
 __param        0x00000000c03377ac       0x14 init/built-in.o
 __param        0x00000000c03377c0       0xdc kernel/built-in.o
 __param        0x00000000c033789c       0xb4 fs/built-in.o
 __param        0x00000000c0337950      0x2f8 drivers/built-in.o
 __param        0x00000000c0337c48      0x26c net/built-in.o
                0x00000000c0337eb4                __stop___param = .
                0x00000000c0338000                . = ALIGN (0x1000)
 *fill*         0x00000000c0337eb4      0x14c 00
                0x00000000c0338000                __end_rodata = .
                0x00000000c0338000                . = ALIGN (0x1000)
                0x00000000c0338000                _etext = .
                0x00000000c0338000                . = ALIGN (0x2000)
                0x00000000c0338000                __data_loc = .

.data           0x00000000c0338000    0x25de0
                0x00000000c0338000                _data = .
 *(.data.init_task)
 .data.init_task
                0x00000000c0338000     0x2000 arch/arm/kernel/init_task.o
                0x00000000c0338000                init_thread_union
                0x00000000c033a000                . = ALIGN (0x1000)
                0x00000000c033a000                __nosave_begin = .
 *(.data.nosave)
                0x00000000c033a000                . = ALIGN (0x1000)
                0x00000000c033a000                __nosave_end = .
                0x00000000c033a000                . = ALIGN (0x20)
 *(.data.cacheline_aligned)
 .data.cacheline_aligned
                0x00000000c033a000        0x0 kernel/built-in.o
                0x00000000c033a000                tasklist_lock
                0x00000000c033a000                . = ALIGN (0x20)
                0x00000000c033a000                __start___ex_table = .
 *(__ex_table)
 __ex_table     0x00000000c033a000      0x1d8 arch/arm/kernel/built-in.o
 __ex_table     0x00000000c033a1d8      0x258 arch/arm/mm/built-in.o
 __ex_table     0x00000000c033a430      0x150 kernel/built-in.o
 __ex_table     0x00000000c033a580       0x20 mm/built-in.o
 __ex_table     0x00000000c033a5a0      0x1f8 fs/built-in.o
 __ex_table     0x00000000c033a798       0x20 arch/arm/lib/lib.a(backtrace.o)
 __ex_table     0x00000000c033a7b8       0x48 arch/arm/lib/lib.a(clear_user.o)
 __ex_table     0x00000000c033a800      0x188 arch/arm/lib/lib.a(copy_from_user.o)
 __ex_table     0x00000000c033a988      0x180 arch/arm/lib/lib.a(copy_to_user.o)
 __ex_table     0x00000000c033ab08      0x138 arch/arm/lib/lib.a(csumpartialcopyuser.o)
 __ex_table     0x00000000c033ac40       0x20 arch/arm/lib/lib.a(getuser.o)
 __ex_table     0x00000000c033ac60       0x30 arch/arm/lib/lib.a(putuser.o)
 __ex_table     0x00000000c033ac90        0x8 arch/arm/lib/lib.a(strncpy_from_user.o)
 __ex_table     0x00000000c033ac98        0x8 arch/arm/lib/lib.a(strnlen_user.o)
 __ex_table     0x00000000c033aca0        0x8 lib/built-in.o
 __ex_table     0x00000000c033aca8      0x150 drivers/built-in.o
 __ex_table     0x00000000c033adf8       0x20 net/built-in.o
                0x00000000c033ae18                __stop___ex_table = .
 *(.data)
 .data          0x00000000c033ae18        0x0 usr/built-in.o
 .data          0x00000000c033ae18        0x0 arch/arm/kernel/head.o
 .data          0x00000000c033ae18      0xc28 arch/arm/kernel/init_task.o
                0x00000000c033ae18                init_task
                0x00000000c033b200                init_mm
 .data          0x00000000c033ba40      0x2ac init/built-in.o
                0x00000000c033bac8                envp_init
                0x00000000c033bb50                loops_per_jiffy
                0x00000000c033bb54                init_uts_ns
                0x00000000c033bce0                root_mountflags
 .data          0x00000000c033bcec      0x1c0 arch/arm/kernel/built-in.o
                0x00000000c033bcec                fp_enter
                0x00000000c033bcf0                cr_alignment
                0x00000000c033bcf4                cr_no_alignment
                0x00000000c033bd38                arm_pm_restart
                0x00000000c033bd74                screen_info
 .data          0x00000000c033beac      0x2d0 arch/arm/mm/built-in.o
                0x00000000c033c178                cpu_last_asid
 *fill*         0x00000000c033c17c        0x4 00
 .data          0x00000000c033c180      0x3a0 arch/arm/mach-goldfish/built-in.o
                0x00000000c033c2d0                goldfish_timer
                0x00000000c033c398                goldfish_pdev_bus_device
 .data          0x00000000c033c520      0x3a0 arch/arm/vfp/built-in.o
                0x00000000c033c520                vfp_vector
 .data          0x00000000c033c8c0     0x6aac kernel/built-in.o
                0x00000000c033cb18                sysctl_sched_wakeup_granularity
                0x00000000c033cb1c                sysctl_sched_features
                0x00000000c033cb20                cpuacct_subsys
                0x00000000c033cb74                sysctl_sched_latency
                0x00000000c033cb7c                sysctl_sched_min_granularity
                0x00000000c033cb80                sysctl_sched_rt_runtime
                0x00000000c033cb84                sysctl_sched_rt_period
                0x00000000c033cb94                sysctl_sched_child_runs_first
                0x00000000c033cb98                sysctl_sched_migration_cost
                0x00000000c033cbbc                cpu_cgroup_subsys
                0x00000000c033cc10                sysctl_sched_shares_thresh
                0x00000000c033cc14                sysctl_sched_shares_ratelimit
                0x00000000c033cc18                sysctl_sched_nr_migrate
                0x00000000c033cc28                default_exec_domain
                0x00000000c033ccdc                console_suspend_enabled
                0x00000000c033cce0                printk_ratelimit_state
                0x00000000c033cd00                console_printk
                0x00000000c033cd14                log_wait
                0x00000000c033cd30                g_WekaMarker3
                0x00000000c033cd34                iomem_resource
                0x00000000c033cd50                ioport_resource
                0x00000000c033dce0                jiffies_64
                0x00000000c033dce8                init_user_ns
                0x00000000c033e100                root_user
                0x00000000c033e130                poweroff_cmd
                0x00000000c033e23c                C_A_D
                0x00000000c033e250                uts_sem
                0x00000000c033e25c                init_groups
                0x00000000c033e2e8                fs_overflowgid
                0x00000000c033e2ec                fs_overflowuid
                0x00000000c033e2f0                overflowgid
                0x00000000c033e2f4                overflowuid
                0x00000000c033e300                modprobe_path
                0x00000000c033e418                pid_max
                0x00000000c033e41c                init_pid_ns
                0x00000000c033e440                pid_max_max
                0x00000000c033e444                pid_max_min
                0x00000000c033e448                init_struct_pid
                0x00000000c033e480                module_ktype
                0x00000000c033e4b8                per_cpu__hrtimer_bases
                0x00000000c033e530                init_nsproxy
                0x00000000c033e548                reboot_notifier_list
                0x00000000c033e6a8                init_cred
                0x00000000c033e79c                tick_usec
                0x00000000c033e7a0                time_status
                0x00000000c033e7a4                time_maxerror
                0x00000000c033e7a8                time_esterror
                0x00000000c033e858                clocksource_jiffies
                0x00000000c033e940                tick_do_timer_cpu
                0x00000000c033e954                max_lock_depth
                0x00000000c033ea04                pm_mutex
                0x00000000c033ebf0                requested_suspend_state
                0x00000000c033f138                proc_cgroup_operations
                0x00000000c033f3f8                debug_subsys
                0x00000000c033f4c4                freezer_subsys
                0x00000000c033f518                irq_desc
                0x00000000c0343118                dummy_irq_chip
                0x00000000c0343158                no_irq_chip
                0x00000000c0343198                nr_irqs
 *fill*         0x00000000c034336c        0x4 00
 .data          0x00000000c0343370      0x570 mm/built-in.o
                0x00000000c0343370                generic_file_vm_ops
                0x00000000c0343394                sysctl_lowmem_reserve_ratio
                0x00000000c0343398                min_free_order_shift
                0x00000000c03433b4                min_free_kbytes
                0x00000000c03433b8                node_states
                0x00000000c03433c8                dirty_expire_interval
                0x00000000c03433cc                dirty_writeback_interval
                0x00000000c03433e8                dirty_background_ratio
                0x00000000c03433ec                vm_dirty_ratio
                0x00000000c0343418                default_backing_dev_info
                0x00000000c0343484                vm_swappiness
                0x00000000c03435a8                randomize_va_space
                0x00000000c03435ac                protection_map
                0x00000000c03435ec                sysctl_overcommit_ratio
                0x00000000c03435f0                sysctl_max_map_count
                0x00000000c03435f4                mmap_min_addr
                0x00000000c0343630                swapper_space
                0x00000000c034381c                malloc_sizes
 .data          0x00000000c03438e0     0x2694 fs/built-in.o
                0x00000000c03438e0                files_stat
                0x00000000c03438ec                super_blocks
                0x00000000c0343928                directly_mappable_cdev_bdi
                0x00000000c0343988                core_pattern
                0x00000000c0343a44                init_fs
                0x00000000c0343a5c                dentry_stat
                0x00000000c0343a74                sysctl_vfs_cache_pressure
                0x00000000c0343a8c                inode_in_use
                0x00000000c0343aa0                inode_unused
                0x00000000c0343abc                sysctl_nr_open
                0x00000000c0343ac0                sysctl_nr_open_max
                0x00000000c0343ac4                init_files
                0x00000000c0343b74                sysctl_nr_open_min
                0x00000000c0343bac                bvec_slabs
                0x00000000c0343c2c                dir_notify_enable
                0x00000000c0343c50                inotify_table
                0x00000000c0343d0c                epoll_table
                0x00000000c0343db8                aio_max_nr
                0x00000000c0343dcc                leases_enable
                0x00000000c0343df0                lease_break_time
                0x00000000c0343ec0                proc_root
                0x00000000c0343fe0                part_type
                0x00000000c0344010                warn_no_part
                0x00000000c03440e8                sysfs_mutex
                0x00000000c0344110                sysfs_rename_mutex
                0x00000000c034411c                sysfs_root
                0x00000000c0344328                nfsd_mutex
                0x00000000c0344334                nfsd_program
                0x00000000c0344460                nfsd_version2
                0x00000000c0344810                svc_export_cache
                0x00000000c03448fc                nfs_exports_op
                0x00000000c0344918                nfsd_svcstats
                0x00000000c034493c                nfsd_version3
                0x00000000c0344f38                nlmsvc_lock_operations
                0x00000000c0344f58                nlmsvc_procedures
                0x00000000c0345388                nlm_program
                0x00000000c0345614                nlm_version4
                0x00000000c0345860                nlmsvc_procedures4
                0x00000000c0345e0c                fuse_dentry_operations
                0x00000000c0345e7c                fuse_mutex
                0x00000000c0345ea8                yaffs_ecc_c_version
                0x00000000c0345eac                yaffs_traceMask
                0x00000000c0345ec8                yaffs_fs_c_version
                0x00000000c0345ed4                yaffs_auto_checkpoint
                0x00000000c0345f18                yaffs_wr_attempts
                0x00000000c0345f5c                yaffs_guts_c_version
                0x00000000c0345f60                yaffs_checkptrw_c_version
                0x00000000c0345f64                yaffs_nand_c_version
                0x00000000c0345f68                yaffs_mtdif_c_version
                0x00000000c0345f6c                yaffs_mtdif1_c_version
                0x00000000c0345f70                yaffs_mtdif2_c_version
 .data          0x00000000c0345f74      0x2d8 ipc/built-in.o
                0x00000000c0345f74                init_ipc_ns
                0x00000000c034603c                nr_ipc_ns
 .data          0x00000000c034624c        0x0 security/built-in.o
 .data          0x00000000c034624c     0x6e54 crypto/built-in.o
                0x00000000c034624c                crypto_alg_sem
                0x00000000c0346258                crypto_alg_list
                0x00000000c0346260                crypto_chain
 .data          0x00000000c034d0a0      0x5b8 block/built-in.o
                0x00000000c034d0bc                blk_queue_ktype
                0x00000000c034d1c4                block_class
 .data          0x00000000c034d658        0x0 arch/arm/lib/lib.a(ashldi3.o)
 .data          0x00000000c034d658        0x0 arch/arm/lib/lib.a(ashrdi3.o)
 .data          0x00000000c034d658        0x0 arch/arm/lib/lib.a(backtrace.o)
 .data          0x00000000c034d658        0x0 arch/arm/lib/lib.a(changebit.o)
 .data          0x00000000c034d658        0x0 arch/arm/lib/lib.a(clear_user.o)
 .data          0x00000000c034d658        0x0 arch/arm/lib/lib.a(clearbit.o)
 .data          0x00000000c034d658        0x0 arch/arm/lib/lib.a(copy_from_user.o)
 .data          0x00000000c034d658        0x0 arch/arm/lib/lib.a(copy_page.o)
 .data          0x00000000c034d658        0x0 arch/arm/lib/lib.a(copy_to_user.o)
 .data          0x00000000c034d658        0x0 arch/arm/lib/lib.a(csumipv6.o)
 .data          0x00000000c034d658        0x0 arch/arm/lib/lib.a(csumpartial.o)
 .data          0x00000000c034d658        0x0 arch/arm/lib/lib.a(csumpartialcopy.o)
 .data          0x00000000c034d658        0x0 arch/arm/lib/lib.a(csumpartialcopyuser.o)
 .data          0x00000000c034d658        0x0 arch/arm/lib/lib.a(delay.o)
 .data          0x00000000c034d658        0x0 arch/arm/lib/lib.a(div64.o)
 .data          0x00000000c034d658        0x0 arch/arm/lib/lib.a(findbit.o)
 .data          0x00000000c034d658        0x0 arch/arm/lib/lib.a(getuser.o)
 .data          0x00000000c034d658        0x0 arch/arm/lib/lib.a(io-readsb.o)
 .data          0x00000000c034d658        0x0 arch/arm/lib/lib.a(io-readsl.o)
 .data          0x00000000c034d658        0x0 arch/arm/lib/lib.a(io-readsw-armv4.o)
 .data          0x00000000c034d658        0x0 arch/arm/lib/lib.a(io-writesb.o)
 .data          0x00000000c034d658        0x0 arch/arm/lib/lib.a(io-writesl.o)
 .data          0x00000000c034d658        0x0 arch/arm/lib/lib.a(io-writesw-armv4.o)
 .data          0x00000000c034d658        0x0 arch/arm/lib/lib.a(lib1funcs.o)
 .data          0x00000000c034d658        0x0 arch/arm/lib/lib.a(lshrdi3.o)
 .data          0x00000000c034d658        0x0 arch/arm/lib/lib.a(memchr.o)
 .data          0x00000000c034d658        0x0 arch/arm/lib/lib.a(memcpy.o)
 .data          0x00000000c034d658        0x0 arch/arm/lib/lib.a(memmove.o)
 .data          0x00000000c034d658        0x0 arch/arm/lib/lib.a(memset.o)
 .data          0x00000000c034d658        0x0 arch/arm/lib/lib.a(memzero.o)
 .data          0x00000000c034d658        0x0 arch/arm/lib/lib.a(muldi3.o)
 .data          0x00000000c034d658        0x0 arch/arm/lib/lib.a(putuser.o)
 .data          0x00000000c034d658        0x0 arch/arm/lib/lib.a(setbit.o)
 .data          0x00000000c034d658        0x0 arch/arm/lib/lib.a(sha1.o)
 .data          0x00000000c034d658        0x0 arch/arm/lib/lib.a(strchr.o)
 .data          0x00000000c034d658        0x0 arch/arm/lib/lib.a(strncpy_from_user.o)
 .data          0x00000000c034d658        0x0 arch/arm/lib/lib.a(strnlen_user.o)
 .data          0x00000000c034d658        0x0 arch/arm/lib/lib.a(strrchr.o)
 .data          0x00000000c034d658        0x0 arch/arm/lib/lib.a(testchangebit.o)
 .data          0x00000000c034d658        0x0 arch/arm/lib/lib.a(testclearbit.o)
 .data          0x00000000c034d658        0x0 arch/arm/lib/lib.a(testsetbit.o)
 .data          0x00000000c034d658        0x0 arch/arm/lib/lib.a(ucmpdi2.o)
 .data          0x00000000c034d658        0x0 lib/lib.a(argv_split.o)
 .data          0x00000000c034d658        0x0 lib/lib.a(cmdline.o)
 .data          0x00000000c034d658      0x100 lib/lib.a(ctype.o)
                0x00000000c034d658                _ctype
 .data          0x00000000c034d758        0x0 lib/lib.a(dec_and_lock.o)
 .data          0x00000000c034d758        0x0 lib/lib.a(extable.o)
 .data          0x00000000c034d758        0x0 lib/lib.a(idr.o)
 .data          0x00000000c034d758        0x0 lib/lib.a(int_sqrt.o)
 .data          0x00000000c034d758        0x0 lib/lib.a(irq_regs.o)
 .data          0x00000000c034d758       0x20 lib/lib.a(kobject.o)
                0x00000000c034d770                kobj_sysfs_ops
 .data          0x00000000c034d778        0x0 lib/lib.a(kobject_uevent.o)
 .data          0x00000000c034d778        0x0 lib/lib.a(kref.o)
 .data          0x00000000c034d778        0x0 lib/lib.a(prio_heap.o)
 .data          0x00000000c034d778        0x0 lib/lib.a(prio_tree.o)
 .data          0x00000000c034d778        0x0 lib/lib.a(proportions.o)
 .data          0x00000000c034d778        0x0 lib/lib.a(radix-tree.o)
 .data          0x00000000c034d778        0x0 lib/lib.a(ratelimit.o)
 .data          0x00000000c034d778        0x0 lib/lib.a(rbtree.o)
 .data          0x00000000c034d778        0x0 lib/lib.a(reciprocal_div.o)
 .data          0x00000000c034d778        0x0 lib/lib.a(rwsem-spinlock.o)
 .data          0x00000000c034d778        0x0 lib/lib.a(string.o)
 .data          0x00000000c034d778        0x1 lib/lib.a(vsprintf.o)
 *fill*         0x00000000c034d779        0x3 00
 .data          0x00000000c034d77c       0x78 lib/built-in.o
                0x00000000c034d77c                debug_locks
 *fill*         0x00000000c034d7f4        0x4 00
 .data          0x00000000c034d7f8     0x5bd8 drivers/built-in.o
                0x00000000c034db68                random_table
                0x00000000c034dcdc                tty_mutex
                0x00000000c034dce8                tty_drivers
                0x00000000c034dcf0                tty_std_termios
                0x00000000c034dd1c                tty_ldisc_N_TTY
                0x00000000c034ddc8                pty_limit
                0x00000000c034df38                keyboard_tasklet
                0x00000000c034df78                kbd_sysrq_xlate
                0x00000000c034e278                k_handler
                0x00000000c034eab8                dfont_unitable
                0x00000000c034ed16                dfont_unicount
                0x00000000c034ee58                default_utf8
                0x00000000c034ee5c                default_red
                0x00000000c034ee9c                default_grn
                0x00000000c034eedc                default_blu
                0x00000000c034ef38                color_table
                0x00000000c034ef84                want_console
                0x00000000c034ef88                con_buf_mtx
                0x00000000c034ef94                accent_table_size
                0x00000000c034ef98                accent_table
                0x00000000c034fb98                func_table
                0x00000000c034ff98                funcbufsize
                0x00000000c034ff9c                funcbufptr
                0x00000000c034ffa0                func_buf
                0x00000000c035003c                keymap_count
                0x00000000c0350040                key_maps
                0x00000000c0350440                ctrl_alt_map
                0x00000000c0350640                alt_map
                0x00000000c0350840                shift_ctrl_map
                0x00000000c0350a40                ctrl_map
                0x00000000c0350c40                altgr_map
                0x00000000c0350e40                shift_map
                0x00000000c0351040                plain_map
                0x00000000c0351250                __sysrq_enabled
                0x00000000c0351668                platform_bus_type
                0x00000000c03516a8                platform_bus
                0x00000000c0351808                cpu_sysdev_class
                0x00000000c03518f0                dpm_list
                0x00000000c03519ac                rd_size
                0x00000000c0351b20                pmem_fops
                0x00000000c0351e00                mtd_table_mutex
                0x00000000c035209c                input_class
                0x00000000c0352cc0                use_spi_crc
 .data          0x00000000c03533d0     0xa408 net/built-in.o
                0x00000000c0353480                sysctl_optmem_max
                0x00000000c0353484                sysctl_rmem_default
                0x00000000c0353488                sysctl_wmem_default
                0x00000000c035348c                sysctl_wmem_max
                0x00000000c0353490                sysctl_rmem_max
                0x00000000c0353494                sysctl_max_syn_backlog
                0x00000000c03534cc                net_namespace_list
                0x00000000c0353740                weight_p
                0x00000000c0353744                netdev_max_backlog
                0x00000000c0353748                netdev_budget
                0x00000000c0353b1c                net_ratelimit_state
                0x00000000c0353b30                net_msg_warn
                0x00000000c0353f74                llc_sap_list
                0x00000000c0353fb8                noop_qdisc
                0x00000000c0354100                noop_qdisc_ops
                0x00000000c0354330                nf_net_netfilter_sysctl_path
                0x00000000c0354574                nf_conntrack_l3proto_generic
                0x00000000c03545ac                nf_conntrack_l4proto_generic
                0x00000000c03546e8                nf_conntrack_l4proto_tcp6
                0x00000000c035473c                nf_conntrack_l4proto_tcp4
                0x00000000c0354c3c                nf_conntrack_l4proto_udp6
                0x00000000c0354c90                nf_conntrack_l4proto_udp4
                0x00000000c0356f58                inet_peer_threshold
                0x00000000c0356f5c                inet_peer_gc_maxtime
                0x00000000c0356fb0                inet_peer_minttl
                0x00000000c0356fb4                inet_peer_maxttl
                0x00000000c0356fb8                inet_peer_gc_mintime
                0x00000000c0357104                sysctl_ip_default_ttl
                0x00000000c0357108                sysctl_local_ports
                0x00000000c0357114                sysctl_tcp_fin_timeout
                0x00000000c0357118                sysctl_tcp_adv_win_scale
                0x00000000c035711c                sysctl_tcp_app_win
                0x00000000c0357120                sysctl_tcp_reordering
                0x00000000c0357124                sysctl_tcp_window_scaling
                0x00000000c0357128                sysctl_tcp_timestamps
                0x00000000c035712c                sysctl_tcp_sack
                0x00000000c0357130                sysctl_tcp_dsack
                0x00000000c0357134                sysctl_tcp_moderate_rcvbuf
                0x00000000c0357138                sysctl_tcp_frto
                0x00000000c035713c                sysctl_tcp_fack
                0x00000000c0357140                sysctl_tcp_max_orphans
                0x00000000c0357144                sysctl_tcp_base_mss
                0x00000000c0357148                sysctl_tcp_slow_start_after_idle
                0x00000000c035714c                sysctl_tcp_tso_win_divisor
                0x00000000c0357150                sysctl_tcp_retrans_collapse
                0x00000000c0357154                sysctl_tcp_keepalive_time
                0x00000000c0357158                sysctl_tcp_keepalive_probes
                0x00000000c035715c                sysctl_tcp_keepalive_intvl
                0x00000000c0357160                sysctl_tcp_syn_retries
                0x00000000c0357164                sysctl_tcp_retries1
                0x00000000c0357168                sysctl_tcp_retries2
                0x00000000c035716c                sysctl_tcp_synack_retries
                0x00000000c0357170                ipv4_specific
                0x00000000c035721c                tcp_request_sock_ops
                0x00000000c035724c                tcp_prot
                0x00000000c0357314                tcp_death_row
                0x00000000c0357420                tcp_init_congestion_ops
                0x00000000c0357468                tcp_reno
                0x00000000c03574b0                raw_prot
                0x00000000c03575f8                udp_prot
                0x00000000c0357730                udplite_prot
                0x00000000c035782c                arp_tbl
                0x00000000c03579bc                arp_broken_ops
                0x00000000c03579d8                icmp_err_convert
                0x00000000c035804c                sysctl_igmp_max_memberships
                0x00000000c0358050                sysctl_igmp_max_msf
                0x00000000c035808c                net_ipv4_ctl_path
                0x00000000c0358e2c                ic_servaddr
                0x00000000c0358e30                ic_myaddr
                0x00000000c0358e34                ic_gateway
                0x00000000c0358e3c                root_server_addr
                0x00000000c0358e40                nf_net_ipv4_netfilter_sysctl_path
                0x00000000c0358e90                nf_conntrack_l3proto_ipv4
                0x00000000c0359044                nf_conntrack_l4proto_icmp
                0x00000000c035a058                xfrm_cfg_mutex
                0x00000000c035ace0                ipv6_route_table_template
                0x00000000c035af10                nd_tbl
                0x00000000c035b134                udpv6_prot
                0x00000000c035b2b4                udplitev6_prot
                0x00000000c035b394                rawv6_prot
                0x00000000c035b474                ipv6_icmp_table_template
                0x00000000c035b4dc                sysctl_mld_max_msf
                0x00000000c035b67c                tcp6_request_sock_ops
                0x00000000c035b764                tcpv6_prot
                0x00000000c035b978                net_ipv6_ctl_path
                0x00000000c035c378                nf_conntrack_l3proto_ipv6
                0x00000000c035c458                nf_conntrack_l4proto_icmpv6
                0x00000000c035c504                nf_ct_ipv6_sysctl_table
                0x00000000c035c918                br_device_notifier
                0x00000000c035c964                brport_sysfs_ops
                0x00000000c035ccb4                xprt_max_resvport
                0x00000000c035ccb8                xprt_min_resvport
                0x00000000c035ccbc                xprt_tcp_slot_table_entries
                0x00000000c035ccfc                xprt_udp_slot_table_entries
                0x00000000c035d05c                svcauth_unix
                0x00000000c035d078                unix_gid_cache
                0x00000000c035d0e8                ip_map_cache
                0x00000000c035d158                svcauth_null
                0x00000000c035d74c                vlan_link_ops
 .data          0x00000000c035d7d8        0x8 lib/lib.a(klist.o)
 .data          0x00000000c035d7e0        0x0 .tmp_kallsyms2.o
 *(.data.init.refok)
 *(.ref.data)
 .ref.data      0x00000000c035d7e0      0x5f8 mm/built-in.o
                0x00000000c035d7e0                contig_page_data
 *(.devinit.data)
 *(.devexit.data)
                0x00000000c035ddd8                . = ALIGN (0x8)
                0x00000000c035ddd8                __start___markers = .
 *(__markers)
                0x00000000c035ddd8                __stop___markers = .
                0x00000000c035dde0                . = ALIGN (0x20)
 *fill*         0x00000000c035ddd8        0x8 00
                0x00000000c035dde0                __start___tracepoints = .
 *(__tracepoints)
                0x00000000c035dde0                __stop___tracepoints = .
                0x00000000c035dde0                _edata = .
                0x00000000c035dde0                _edata_loc = (__data_loc + SIZEOF (.data))

.myWekaSection  0x00000000c035dde0       0x18
 .myWekaSection
                0x00000000c035dde0       0x18 kernel/built-in.o
                0x00000000c035dde0                g_WekaMarker
                0x00000000c035dde4                g_WekaMarker2
                0x00000000c035dde8                g_WekaFileBuffer

.bss            0x00000000c035de00    0x8b3d4
                0x00000000c035de00                __bss_start = .
 *(.bss)
 .bss           0x00000000c035de00        0x0 usr/built-in.o
 .bss           0x00000000c035de00        0x0 arch/arm/kernel/head.o
 .bss           0x00000000c035de00        0x0 arch/arm/kernel/init_task.o
 .bss           0x00000000c035de00      0x8a0 init/built-in.o
                0x00000000c035de00                reset_devices
                0x00000000c035de0c                system_state
                0x00000000c035de18                saved_command_line
                0x00000000c035de20                initcall_debug
                0x00000000c035de24                ROOT_DEV
                0x00000000c035e260                real_root_dev
                0x00000000c035e264                initrd_below_start_ok
                0x00000000c035e268                initrd_end
                0x00000000c035e26c                initrd_start
                0x00000000c035e698                preset_lpj
                0x00000000c035e69c                lpj_fine
 .bss           0x00000000c035e6a0      0x10c arch/arm/kernel/built-in.o
                0x00000000c035e6a0                irq_err_count
                0x00000000c035e6a8                pm_idle
                0x00000000c035e6ac                pm_power_off
                0x00000000c035e6b0                thread_notify_head
                0x00000000c035e6c0                system_serial_low
                0x00000000c035e6c4                system_serial_high
                0x00000000c035e6c8                system_rev
                0x00000000c035e6cc                per_cpu__cpu_data
                0x00000000c035e704                elf_platform
                0x00000000c035e70c                elf_hwcap
                0x00000000c035e760                cpu_user
                0x00000000c035e768                cpu_cache
                0x00000000c035e78c                cacheid
                0x00000000c035e790                __machine_arch_type
                0x00000000c035e794                processor_id
                0x00000000c035e7a0                system_timer
                0x00000000c035e7a4                set_rtc
                0x00000000c035e7ac                die_lock
 .bss           0x00000000c035e7ac       0xa8 arch/arm/mm/built-in.o
                0x00000000c035e7b8                meminfo
                0x00000000c035e81c                pgprot_user
                0x00000000c035e820                pgprot_kernel
                0x00000000c035e824                top_pmd
                0x00000000c035e828                empty_zero_page
                0x00000000c035e82c                per_cpu__mmu_gathers
 .bss           0x00000000c035e854       0x14 arch/arm/mach-goldfish/built-in.o
                0x00000000c035e864                GOLDFISH_READY
 .bss           0x00000000c035e868        0x8 arch/arm/vfp/built-in.o
                0x00000000c035e868                last_VFP_context
                0x00000000c035e86c                VFP_arch
 *fill*         0x00000000c035e870       0x10 00
 .bss           0x00000000c035e880    0x14f9c kernel/built-in.o
                0x00000000c035ed08                init_task_group
                0x00000000c035ed98                sysctl_sched_compat_yield
                0x00000000c035eda0                per_cpu__kstat
                0x00000000c035f234                nohz_cpu_mask
                0x00000000c035f238                fs_cachep
                0x00000000c035f244                per_cpu__process_counts
                0x00000000c035f248                max_threads
                0x00000000c035f24c                vm_area_cachep
                0x00000000c035f250                sighand_cachep
                0x00000000c035f258                nr_threads
                0x00000000c035f25c                total_forks
                0x00000000c035f260                files_cachep
                0x00000000c035f264                mmlist_lock
                0x00000000c035f66c                panic_notifier_list
                0x00000000c035f670                panic_blink
                0x00000000c035f674                panic_timeout
                0x00000000c035f6a4                panic_on_oops
                0x00000000c035f6a8                console_drivers
                0x00000000c035f74c                console_set_on_cmdline
                0x00000000c035f750                oops_in_progress
                0x00000000c036fb74                sys_tz
                0x00000000c036fba0                irq_stat
                0x00000000c036fbd4                per_cpu__softirq_work_list
                0x00000000c036fd80                boot_tvec_bases
                0x00000000c0370da4                avenrun
                0x00000000c0370dc4                print_fatal_signals
                0x00000000c0370dcc                pm_power_off_prepare
                0x00000000c0370dd0                cad_pid
                0x00000000c0370e18                rcu_scheduler_active
                0x00000000c0370e1c                module_kset
                0x00000000c0370e20                module_sysfs_initialized
                0x00000000c03710cc                kthreadd_task
                0x00000000c03710f4                kernel_kobj
                0x00000000c0371160                clock
                0x00000000c0371170                xtime
                0x00000000c0371188                xtime_lock
                0x00000000c037118c                timekeeping_suspended
                0x00000000c0371190                wall_to_monotonic
                0x00000000c03711b0                tick_nsec
                0x00000000c0371204                time_adjust
                0x00000000c0371208                tick_length
                0x00000000c0371258                tick_period
                0x00000000c0371260                tick_next_period
                0x00000000c0371268                per_cpu__tick_cpu_device
                0x00000000c0371270                tick_device_lock
                0x00000000c0372320                futex_cmpxchg_enabled
                0x00000000c0372370                power_kobj
                0x00000000c0372378                pm_flags
                0x00000000c03723d0                suspend_work_queue
                0x00000000c0372420                main_wake_lock
                0x00000000c0372488                user_wake_locks
                0x00000000c0373778                irq_desc_lock_class
                0x00000000c037377c                noirqdebug
                0x00000000c03737a4                per_cpu__rcu_data
                0x00000000c03737e0                per_cpu__rcu_bh_data
 *fill*         0x00000000c037381c        0x4 00
 .bss           0x00000000c0373820      0xd9c mm/built-in.o
                0x00000000c0373824                max_low_pfn
                0x00000000c0373828                min_low_pfn
                0x00000000c037382c                max_pfn
                0x00000000c0373830                sysctl_oom_dump_tasks
                0x00000000c0373834                sysctl_oom_kill_allocating_task
                0x00000000c0373838                sysctl_panic_on_oom
                0x00000000c037383c                totalreserve_pages
                0x00000000c0373840                totalram_pages
                0x00000000c0373854                page_group_by_mobility_disabled
                0x00000000c0373858                percpu_pagelist_fraction
                0x00000000c037385c                highest_memmap_pfn
                0x00000000c0373860                hashdist
                0x00000000c03738a0                dirty_background_bytes
                0x00000000c03738e8                vm_dirty_bytes
                0x00000000c03738f0                laptop_mode
                0x00000000c03738f4                block_dump
                0x00000000c03738f8                vm_highmem_is_dirtyable
                0x00000000c0373900                nr_pdflush_threads
                0x00000000c0373a88                page_cluster
                0x00000000c0373a8c                scan_unevictable_pages
                0x00000000c0373a90                vm_total_pages
                0x00000000c0373a9c                per_cpu__vm_event_states
                0x00000000c0373b24                vm_stat
                0x00000000c0373b74                mm_kobj
                0x00000000c0373b78                mminit_loglevel
                0x00000000c0373b7c                mem_map
                0x00000000c0373b8c                max_mapnr
                0x00000000c0373b90                high_memory
                0x00000000c0373b94                num_physpages
                0x00000000c0373b98                vm_committed_space
                0x00000000c0373b9c                sysctl_overcommit_memory
                0x00000000c0373ba8                vmlist
                0x00000000c0373bcc                vmlist_lock
                0x00000000c037455c                nr_swap_pages
                0x00000000c0374568                total_swap_pages
                0x00000000c0374574                swap_token_mm
 *fill*         0x00000000c03745bc        0x4 00
 .bss           0x00000000c03745c0     0x354c fs/built-in.o
                0x00000000c03745d4                files_lock
                0x00000000c0374634                sb_lock
                0x00000000c0374a34                suid_dumpable
                0x00000000c0374a38                core_uses_pid
                0x00000000c0374a54                rename_lock
                0x00000000c0374a54                dcache_lock
                0x00000000c0374a58                names_cachep
                0x00000000c0374a68                inodes_stat
                0x00000000c0374b94                inode_lock
                0x00000000c0374bf4                vfsmount_lock
                0x00000000c0374bf4                fs_kobj
                0x00000000c0374bf8                sysctl_drop_caches
                0x00000000c0374c10                buffer_heads_over_limit
                0x00000000c0374c48                fs_bio_set
                0x00000000c0374c58                blockdev_superblock
                0x00000000c0374d14                aio_nr
                0x00000000c0374d28                proc_mnt
                0x00000000c0374d40                proc_subdir_lock
                0x00000000c0375d5c                sysfs_sb
                0x00000000c0375d5c                sysfs_assoc_lock
                0x00000000c0375d60                sysfs_dir_cachep
                0x00000000c0375d90                nfsd_serv
                0x00000000c0375da4                nfssvc_boot
                0x00000000c0375dac                nfsd_max_blksize
                0x00000000c037665c                nfsdstats
                0x00000000c0376794                nlmsvc_timeout
                0x00000000c0376798                nlmsvc_ops
                0x00000000c03769c0                nsm_use_hostnames
                0x00000000c03769c4                nsm_local_state
                0x00000000c0377ac4                fuse_conn_list
 .bss           0x00000000c0377b0c        0x4 ipc/built-in.o
 .bss           0x00000000c0377b10        0x0 security/built-in.o
 .bss           0x00000000c0377b10       0x84 crypto/built-in.o
                0x00000000c0377b90                crypto_default_rng
 .bss           0x00000000c0377b94      0x46c block/built-in.o
                0x00000000c0377bac                blk_requestq_cachep
                0x00000000c0377bb4                blk_max_low_pfn
                0x00000000c0377bb8                blk_max_pfn
                0x00000000c0377fd0                block_depr
 .bss           0x00000000c0378000        0x0 arch/arm/lib/lib.a(ashldi3.o)
 .bss           0x00000000c0378000        0x0 arch/arm/lib/lib.a(ashrdi3.o)
 .bss           0x00000000c0378000        0x0 arch/arm/lib/lib.a(backtrace.o)
 .bss           0x00000000c0378000        0x0 arch/arm/lib/lib.a(changebit.o)
 .bss           0x00000000c0378000        0x0 arch/arm/lib/lib.a(clear_user.o)
 .bss           0x00000000c0378000        0x0 arch/arm/lib/lib.a(clearbit.o)
 .bss           0x00000000c0378000        0x0 arch/arm/lib/lib.a(copy_from_user.o)
 .bss           0x00000000c0378000        0x0 arch/arm/lib/lib.a(copy_page.o)
 .bss           0x00000000c0378000        0x0 arch/arm/lib/lib.a(copy_to_user.o)
 .bss           0x00000000c0378000        0x0 arch/arm/lib/lib.a(csumipv6.o)
 .bss           0x00000000c0378000        0x0 arch/arm/lib/lib.a(csumpartial.o)
 .bss           0x00000000c0378000        0x0 arch/arm/lib/lib.a(csumpartialcopy.o)
 .bss           0x00000000c0378000        0x0 arch/arm/lib/lib.a(csumpartialcopyuser.o)
 .bss           0x00000000c0378000        0x0 arch/arm/lib/lib.a(delay.o)
 .bss           0x00000000c0378000        0x0 arch/arm/lib/lib.a(div64.o)
 .bss           0x00000000c0378000        0x0 arch/arm/lib/lib.a(findbit.o)
 .bss           0x00000000c0378000        0x0 arch/arm/lib/lib.a(getuser.o)
 .bss           0x00000000c0378000        0x0 arch/arm/lib/lib.a(io-readsb.o)
 .bss           0x00000000c0378000        0x0 arch/arm/lib/lib.a(io-readsl.o)
 .bss           0x00000000c0378000        0x0 arch/arm/lib/lib.a(io-readsw-armv4.o)
 .bss           0x00000000c0378000        0x0 arch/arm/lib/lib.a(io-writesb.o)
 .bss           0x00000000c0378000        0x0 arch/arm/lib/lib.a(io-writesl.o)
 .bss           0x00000000c0378000        0x0 arch/arm/lib/lib.a(io-writesw-armv4.o)
 .bss           0x00000000c0378000        0x0 arch/arm/lib/lib.a(lib1funcs.o)
 .bss           0x00000000c0378000        0x0 arch/arm/lib/lib.a(lshrdi3.o)
 .bss           0x00000000c0378000        0x0 arch/arm/lib/lib.a(memchr.o)
 .bss           0x00000000c0378000        0x0 arch/arm/lib/lib.a(memcpy.o)
 .bss           0x00000000c0378000        0x0 arch/arm/lib/lib.a(memmove.o)
 .bss           0x00000000c0378000        0x0 arch/arm/lib/lib.a(memset.o)
 .bss           0x00000000c0378000        0x0 arch/arm/lib/lib.a(memzero.o)
 .bss           0x00000000c0378000        0x0 arch/arm/lib/lib.a(muldi3.o)
 .bss           0x00000000c0378000        0x0 arch/arm/lib/lib.a(putuser.o)
 .bss           0x00000000c0378000        0x0 arch/arm/lib/lib.a(setbit.o)
 .bss           0x00000000c0378000        0x0 arch/arm/lib/lib.a(sha1.o)
 .bss           0x00000000c0378000        0x0 arch/arm/lib/lib.a(strchr.o)
 .bss           0x00000000c0378000        0x0 arch/arm/lib/lib.a(strncpy_from_user.o)
 .bss           0x00000000c0378000        0x0 arch/arm/lib/lib.a(strnlen_user.o)
 .bss           0x00000000c0378000        0x0 arch/arm/lib/lib.a(strrchr.o)
 .bss           0x00000000c0378000        0x0 arch/arm/lib/lib.a(testchangebit.o)
 .bss           0x00000000c0378000        0x0 arch/arm/lib/lib.a(testclearbit.o)
 .bss           0x00000000c0378000        0x0 arch/arm/lib/lib.a(testsetbit.o)
 .bss           0x00000000c0378000        0x0 arch/arm/lib/lib.a(ucmpdi2.o)
 .bss           0x00000000c0378000        0x0 lib/lib.a(argv_split.o)
 .bss           0x00000000c0378000        0x0 lib/lib.a(cmdline.o)
 .bss           0x00000000c0378000        0x0 lib/lib.a(ctype.o)
 .bss           0x00000000c0378000        0x0 lib/lib.a(dec_and_lock.o)
 .bss           0x00000000c0378000        0x0 lib/lib.a(extable.o)
 .bss           0x00000000c0378000        0x4 lib/lib.a(idr.o)
 .bss           0x00000000c0378004        0x0 lib/lib.a(int_sqrt.o)
 .bss           0x00000000c0378004        0x4 lib/lib.a(irq_regs.o)
                0x00000000c0378004                per_cpu____irq_regs
 .bss           0x00000000c0378008        0x0 lib/lib.a(kobject.o)
 .bss           0x00000000c0378008      0x110 lib/lib.a(kobject_uevent.o)
                0x00000000c0378008                uevent_seqnum
                0x00000000c0378014                uevent_helper
 .bss           0x00000000c0378118        0x0 lib/lib.a(kref.o)
 .bss           0x00000000c0378118        0x0 lib/lib.a(prio_heap.o)
 .bss           0x00000000c0378118       0x80 lib/lib.a(prio_tree.o)
 .bss           0x00000000c0378198        0x0 lib/lib.a(proportions.o)
 .bss           0x00000000c0378198       0x3c lib/lib.a(radix-tree.o)
 .bss           0x00000000c03781d4        0x0 lib/lib.a(ratelimit.o)
 .bss           0x00000000c03781d4        0x0 lib/lib.a(rbtree.o)
 .bss           0x00000000c03781d4        0x0 lib/lib.a(reciprocal_div.o)
 .bss           0x00000000c03781d4        0x0 lib/lib.a(rwsem-spinlock.o)
 .bss           0x00000000c03781d4        0x0 lib/lib.a(string.o)
 .bss           0x00000000c03781d4        0x0 lib/lib.a(vsprintf.o)
 .bss           0x00000000c03781d4       0x14 lib/built-in.o
                0x00000000c03781d4                debug_locks_silent
 *fill*         0x00000000c03781e8       0x18 00
 .bss           0x00000000c0378200    0x65f44 drivers/built-in.o
                0x00000000c0378200                registered_fb
                0x00000000c0378304                num_registered_fb
                0x00000000c0378308                fb_class
                0x00000000c037830c                fb_mode_option
                0x00000000c0378b5c                tty_class
                0x00000000c0378cac                vt_dont_switch
                0x00000000c0378cb4                sel_cons
                0x00000000c0378ccc                kbd_table
                0x00000000c0378e10                shift_state
                0x00000000c0378e24                vt_spawn_con
                0x00000000c0378fb0                console_blanked
                0x00000000c0378fb4                conswitchp
                0x00000000c03790b8                fg_console
                0x00000000c03790bc                console_driver
                0x00000000c0379288                vc_cons
                0x00000000c0379784                console_blank_hook
                0x00000000c0379794                kmsg_redirect
                0x00000000c03797dc                do_poke_blanked_console
                0x00000000c03797e4                last_console
                0x00000000c03797e8                con_buf
                0x00000000c037a7e8                funcbufleft
                0x00000000c037a82c                devices_kset
                0x00000000c037a830                sysfs_dev_char_kobj
                0x00000000c037a834                platform_notify_remove
                0x00000000c037a838                platform_notify
                0x00000000c037a840                sysfs_dev_block_kobj
                0x00000000c037a858                total_cpus
                0x00000000c037a85c                firmware_kobj
                0x00000000c037cd1c                mtd_table
                0x00000000c037cf78                rtc_class
                0x00000000c037d194                power_supply_class
                0x00000000c037d72c                binder_transaction_log
                0x00000000c037dc34                binder_transaction_log_failed
 *fill*         0x00000000c03de144        0x4 00
 .bss           0x00000000c03de148     0xb08c net/built-in.o
                0x00000000c03de3e0                init_net
                0x00000000c03de7cc                per_cpu__softnet_data
                0x00000000c03de8a0                per_cpu__netdev_rx_stat
                0x00000000c03de938                br_handle_frame_hook
                0x00000000c03dea50                br_fdb_put_hook
                0x00000000c03dea54                br_fdb_get_hook
                0x00000000c03dea58                dev_base_lock
                0x00000000c03deb54                flow_cache_genid
                0x00000000c03deb58                llc_sap_list_lock
                0x00000000c03dec44                genl_sock
                0x00000000c03dec50                ip_ct_attach
                0x00000000c03dec54                nf_hooks
                0x00000000c03def94                nf_afinfo
                0x00000000c03defc8                nf_ct_destroy
                0x00000000c03defcc                proc_net_netfilter
                0x00000000c03df098                nf_conntrack_htable_size
                0x00000000c03df0a8                nf_conntrack_max
                0x00000000c03df0b0                nf_conntrack_untracked
                0x00000000c03df180                nfnetlink_parse_nat_setup_hook
                0x00000000c03df180                nf_conntrack_lock
                0x00000000c03df190                nf_ct_expect_hsize
                0x00000000c03df1a0                nf_ct_expect_max
                0x00000000c03df1b4                nf_ct_l3protos
                0x00000000c03df2f8                nf_ct_expect_chain
                0x00000000c03df2fc                nf_conntrack_chain
                0x00000000c03df31c                nf_nat_amanda_hook
                0x00000000c03df89c                nf_nat_ftp_hook
                0x00000000c03df8a4                nat_h245_hook
                0x00000000c03df8a8                nat_t120_hook
                0x00000000c03df8ac                nat_rtp_rtcp_hook
                0x00000000c03e0b24                set_h225_addr_hook
                0x00000000c03e0b28                nat_callforwarding_hook
                0x00000000c03e0c30                set_ras_addr_hook
                0x00000000c03e0c34                nat_q931_hook
                0x00000000c03e0c38                set_sig_addr_hook
                0x00000000c03e0c3c                set_h245_addr_hook
                0x00000000c03e0f10                nf_nat_irc_hook
                0x00000000c03e0f14                nf_nat_pptp_hook_exp_gre
                0x00000000c03e0f18                nf_nat_pptp_hook_expectfn
                0x00000000c03e0f1c                nf_nat_pptp_hook_outbound
                0x00000000c03e0f20                nf_nat_pptp_hook_inbound
                0x00000000c03e1a30                nf_nat_tftp_hook
                0x00000000c03e1ae8                inet_protos
                0x00000000c03e1ae8                inet_peer_idlock
                0x00000000c03e2028                ip_ra_chain
                0x00000000c03e202c                ip_ra_lock
                0x00000000c03e2030                tcp_memory_allocated
                0x00000000c03e2034                sysctl_tcp_mem
                0x00000000c03e2040                tcp_memory_pressure
                0x00000000c03e2048                tcp_sockets_allocated
                0x00000000c03e2050                tcp_orphan_count
                0x00000000c03e2058                sysctl_tcp_wmem
                0x00000000c03e2064                sysctl_tcp_rmem
                0x00000000c03e2070                sysctl_tcp_stdurg
                0x00000000c03e2074                sysctl_tcp_nometrics_save
                0x00000000c03e2078                sysctl_tcp_abc
                0x00000000c03e207c                sysctl_tcp_frto_response
                0x00000000c03e2080                sysctl_tcp_rfc1337
                0x00000000c03e2084                sysctl_tcp_ecn
                0x00000000c03e2088                sysctl_tcp_workaround_signed_windows
                0x00000000c03e208c                sysctl_tcp_mtu_probing
                0x00000000c03e2090                sysctl_tcp_orphan_retries
                0x00000000c03e2094                tcp_hashinfo
                0x00000000c03e2130                sysctl_tcp_tw_reuse
                0x00000000c03e2138                sysctl_tcp_low_latency
                0x00000000c03e213c                sysctl_tcp_abort_on_overflow
                0x00000000c03e2140                sysctl_tcp_syncookies
                0x00000000c03e2144                sysctl_tcp_max_ssthresh
                0x00000000c03e2550                udp_table
                0x00000000c03e2950                sysctl_udp_mem
                0x00000000c03e295c                sysctl_udp_rmem_min
                0x00000000c03e2960                sysctl_udp_wmem_min
                0x00000000c03e2964                udp_memory_allocated
                0x00000000c03e2968                udplite_table
                0x00000000c03e2d68                sysctl_ip_dynaddr
                0x00000000c03e2dc4                sysctl_ip_nonlocal_bind
                0x00000000c03e2dc8                inet_ehash_secret
                0x00000000c03e2dcc                ipv4_config
                0x00000000c03e3828                syncookie_secret
                0x00000000c03e3a9c                root_server_path
                0x00000000c03e3b9c                ip_nat_decode_session
                0x00000000c03e3ba0                nf_nat_seq_adjust_hook
                0x00000000c03e4560                unix_tot_inflight
                0x00000000c03e4624                ip6_ra_chain
                0x00000000c03e4628                ip6_ra_lock
                0x00000000c03e4628                ipv6_statistics
                0x00000000c03e4a44                inet6_protos
                0x00000000c03e4e44                icmpv6msg_statistics
                0x00000000c03e4e4c                icmpv6_statistics
                0x00000000c03e56dc                br_should_route_hook
                0x00000000c03e574c                rpciod_workqueue
                0x00000000c03e9138                proc_net_rpc
                0x00000000c03e9140                nlm_debug
                0x00000000c03e9144                nfsd_debug
                0x00000000c03e9148                nfs_debug
                0x00000000c03e914c                rpc_debug
                0x00000000c03e91d0                vlan_net_id
 .bss           0x00000000c03e91d4        0x0 lib/lib.a(klist.o)
 .bss           0x00000000c03e91d4        0x0 .tmp_kallsyms2.o
 *(COMMON)
                0x00000000c03e91d4                _end = .

.stab
 *(.stab)

.stabstr
 *(.stabstr)

.stab.excl
 *(.stab.excl)

.stab.exclstr
 *(.stab.exclstr)

.stab.index
 *(.stab.index)

.stab.indexstr
 *(.stab.indexstr)

.ARM.attributes
                0x0000000000000000       0x2d
 .ARM.attributes
                0x0000000000000000       0x21 usr/built-in.o
 .ARM.attributes
                0x0000000000000021       0x21 arch/arm/kernel/head.o
 .ARM.attributes
                0x0000000000000042       0x2f arch/arm/kernel/init_task.o
 .ARM.attributes
                0x0000000000000071       0x2f init/built-in.o
 .ARM.attributes
                0x00000000000000a0       0x2f arch/arm/kernel/built-in.o
 .ARM.attributes
                0x00000000000000cf       0x2f arch/arm/mm/built-in.o
 .ARM.attributes
                0x00000000000000fe       0x2f arch/arm/mach-goldfish/built-in.o
 .ARM.attributes
                0x000000000000012d       0x2f arch/arm/vfp/built-in.o
 .ARM.attributes
                0x000000000000015c       0x2f kernel/built-in.o
 .ARM.attributes
                0x000000000000018b       0x2f mm/built-in.o
 .ARM.attributes
                0x00000000000001ba       0x2f fs/built-in.o
 .ARM.attributes
                0x00000000000001e9       0x2f ipc/built-in.o
 .ARM.attributes
                0x0000000000000218       0x2f security/built-in.o
 .ARM.attributes
                0x0000000000000247       0x2f crypto/built-in.o
 .ARM.attributes
                0x0000000000000276       0x2f block/built-in.o
 .ARM.attributes
                0x00000000000002a5       0x21 arch/arm/lib/lib.a(ashldi3.o)
 .ARM.attributes
                0x00000000000002c6       0x21 arch/arm/lib/lib.a(ashrdi3.o)
 .ARM.attributes
                0x00000000000002e7       0x21 arch/arm/lib/lib.a(backtrace.o)
 .ARM.attributes
                0x0000000000000308       0x21 arch/arm/lib/lib.a(changebit.o)
 .ARM.attributes
                0x0000000000000329       0x21 arch/arm/lib/lib.a(clear_user.o)
 .ARM.attributes
                0x000000000000034a       0x21 arch/arm/lib/lib.a(clearbit.o)
 .ARM.attributes
                0x000000000000036b       0x21 arch/arm/lib/lib.a(copy_from_user.o)
 .ARM.attributes
                0x000000000000038c       0x21 arch/arm/lib/lib.a(copy_page.o)
 .ARM.attributes
                0x00000000000003ad       0x21 arch/arm/lib/lib.a(copy_to_user.o)
 .ARM.attributes
                0x00000000000003ce       0x21 arch/arm/lib/lib.a(csumipv6.o)
 .ARM.attributes
                0x00000000000003ef       0x21 arch/arm/lib/lib.a(csumpartial.o)
 .ARM.attributes
                0x0000000000000410       0x21 arch/arm/lib/lib.a(csumpartialcopy.o)
 .ARM.attributes
                0x0000000000000431       0x21 arch/arm/lib/lib.a(csumpartialcopyuser.o)
 .ARM.attributes
                0x0000000000000452       0x21 arch/arm/lib/lib.a(delay.o)
 .ARM.attributes
                0x0000000000000473       0x21 arch/arm/lib/lib.a(div64.o)
 .ARM.attributes
                0x0000000000000494       0x21 arch/arm/lib/lib.a(findbit.o)
 .ARM.attributes
                0x00000000000004b5       0x21 arch/arm/lib/lib.a(getuser.o)
 .ARM.attributes
                0x00000000000004d6       0x21 arch/arm/lib/lib.a(io-readsb.o)
 .ARM.attributes
                0x00000000000004f7       0x21 arch/arm/lib/lib.a(io-readsl.o)
 .ARM.attributes
                0x0000000000000518       0x21 arch/arm/lib/lib.a(io-readsw-armv4.o)
 .ARM.attributes
                0x0000000000000539       0x21 arch/arm/lib/lib.a(io-writesb.o)
 .ARM.attributes
                0x000000000000055a       0x21 arch/arm/lib/lib.a(io-writesl.o)
 .ARM.attributes
                0x000000000000057b       0x21 arch/arm/lib/lib.a(io-writesw-armv4.o)
 .ARM.attributes
                0x000000000000059c       0x21 arch/arm/lib/lib.a(lib1funcs.o)
 .ARM.attributes
                0x00000000000005bd       0x21 arch/arm/lib/lib.a(lshrdi3.o)
 .ARM.attributes
                0x00000000000005de       0x21 arch/arm/lib/lib.a(memchr.o)
 .ARM.attributes
                0x00000000000005ff       0x21 arch/arm/lib/lib.a(memcpy.o)
 .ARM.attributes
                0x0000000000000620       0x21 arch/arm/lib/lib.a(memmove.o)
 .ARM.attributes
                0x0000000000000641       0x21 arch/arm/lib/lib.a(memset.o)
 .ARM.attributes
                0x0000000000000662       0x21 arch/arm/lib/lib.a(memzero.o)
 .ARM.attributes
                0x0000000000000683       0x21 arch/arm/lib/lib.a(muldi3.o)
 .ARM.attributes
                0x00000000000006a4       0x21 arch/arm/lib/lib.a(putuser.o)
 .ARM.attributes
                0x00000000000006c5       0x21 arch/arm/lib/lib.a(setbit.o)
 .ARM.attributes
                0x00000000000006e6       0x21 arch/arm/lib/lib.a(sha1.o)
 .ARM.attributes
                0x0000000000000707       0x21 arch/arm/lib/lib.a(strchr.o)
 .ARM.attributes
                0x0000000000000728       0x21 arch/arm/lib/lib.a(strncpy_from_user.o)
 .ARM.attributes
                0x0000000000000749       0x21 arch/arm/lib/lib.a(strnlen_user.o)
 .ARM.attributes
                0x000000000000076a       0x21 arch/arm/lib/lib.a(strrchr.o)
 .ARM.attributes
                0x000000000000078b       0x21 arch/arm/lib/lib.a(testchangebit.o)
 .ARM.attributes
                0x00000000000007ac       0x21 arch/arm/lib/lib.a(testclearbit.o)
 .ARM.attributes
                0x00000000000007cd       0x21 arch/arm/lib/lib.a(testsetbit.o)
 .ARM.attributes
                0x00000000000007ee       0x21 arch/arm/lib/lib.a(ucmpdi2.o)
 .ARM.attributes
                0x000000000000080f       0x2f lib/lib.a(argv_split.o)
 .ARM.attributes
                0x000000000000083e       0x2f lib/lib.a(cmdline.o)
 .ARM.attributes
                0x000000000000086d       0x2f lib/lib.a(ctype.o)
 .ARM.attributes
                0x000000000000089c       0x2f lib/lib.a(dec_and_lock.o)
 .ARM.attributes
                0x00000000000008cb       0x2f lib/lib.a(extable.o)
 .ARM.attributes
                0x00000000000008fa       0x2f lib/lib.a(idr.o)
 .ARM.attributes
                0x0000000000000929       0x2f lib/lib.a(int_sqrt.o)
 .ARM.attributes
                0x0000000000000958       0x2f lib/lib.a(irq_regs.o)
 .ARM.attributes
                0x0000000000000987       0x2f lib/lib.a(kobject.o)
 .ARM.attributes
                0x00000000000009b6       0x2f lib/lib.a(kobject_uevent.o)
 .ARM.attributes
                0x00000000000009e5       0x2f lib/lib.a(kref.o)
 .ARM.attributes
                0x0000000000000a14       0x2f lib/lib.a(prio_heap.o)
 .ARM.attributes
                0x0000000000000a43       0x2f lib/lib.a(prio_tree.o)
 .ARM.attributes
                0x0000000000000a72       0x2f lib/lib.a(proportions.o)
 .ARM.attributes
                0x0000000000000aa1       0x2f lib/lib.a(radix-tree.o)
 .ARM.attributes
                0x0000000000000ad0       0x2f lib/lib.a(ratelimit.o)
 .ARM.attributes
                0x0000000000000aff       0x2f lib/lib.a(rbtree.o)
 .ARM.attributes
                0x0000000000000b2e       0x2f lib/lib.a(reciprocal_div.o)
 .ARM.attributes
                0x0000000000000b5d       0x2f lib/lib.a(rwsem-spinlock.o)
 .ARM.attributes
                0x0000000000000b8c       0x2f lib/lib.a(string.o)
 .ARM.attributes
                0x0000000000000bbb       0x2f lib/lib.a(vsprintf.o)
 .ARM.attributes
                0x0000000000000bea       0x2f lib/built-in.o
 .ARM.attributes
                0x0000000000000c19       0x2f drivers/built-in.o
 .ARM.attributes
                0x0000000000000c48       0x2f net/built-in.o
 .ARM.attributes
                0x0000000000000c77       0x2f lib/lib.a(klist.o)
 .ARM.attributes
                0x0000000000000ca6       0x21 .tmp_kallsyms2.o

.note.GNU-stack
                0x0000000000000000        0x0
 .note.GNU-stack
                0x0000000000000000        0x0 arch/arm/kernel/init_task.o
 .note.GNU-stack
                0x0000000000000000        0x0 init/built-in.o
 .note.GNU-stack
                0x0000000000000000        0x0 arch/arm/kernel/built-in.o
 .note.GNU-stack
                0x0000000000000000        0x0 arch/arm/mm/built-in.o
 .note.GNU-stack
                0x0000000000000000        0x0 arch/arm/mach-goldfish/built-in.o
 .note.GNU-stack
                0x0000000000000000        0x0 arch/arm/vfp/built-in.o
 .note.GNU-stack
                0x0000000000000000        0x0 kernel/built-in.o
 .note.GNU-stack
                0x0000000000000000        0x0 mm/built-in.o
 .note.GNU-stack
                0x0000000000000000        0x0 fs/built-in.o
 .note.GNU-stack
                0x0000000000000000        0x0 ipc/built-in.o
 .note.GNU-stack
                0x0000000000000000        0x0 security/built-in.o
 .note.GNU-stack
                0x0000000000000000        0x0 crypto/built-in.o
 .note.GNU-stack
                0x0000000000000000        0x0 block/built-in.o
 .note.GNU-stack
                0x0000000000000000        0x0 lib/lib.a(argv_split.o)
 .note.GNU-stack
                0x0000000000000000        0x0 lib/lib.a(cmdline.o)
 .note.GNU-stack
                0x0000000000000000        0x0 lib/lib.a(ctype.o)
 .note.GNU-stack
                0x0000000000000000        0x0 lib/lib.a(dec_and_lock.o)
 .note.GNU-stack
                0x0000000000000000        0x0 lib/lib.a(extable.o)
 .note.GNU-stack
                0x0000000000000000        0x0 lib/lib.a(idr.o)
 .note.GNU-stack
                0x0000000000000000        0x0 lib/lib.a(int_sqrt.o)
 .note.GNU-stack
                0x0000000000000000        0x0 lib/lib.a(irq_regs.o)
 .note.GNU-stack
                0x0000000000000000        0x0 lib/lib.a(kobject.o)
 .note.GNU-stack
                0x0000000000000000        0x0 lib/lib.a(kobject_uevent.o)
 .note.GNU-stack
                0x0000000000000000        0x0 lib/lib.a(kref.o)
 .note.GNU-stack
                0x0000000000000000        0x0 lib/lib.a(prio_heap.o)
 .note.GNU-stack
                0x0000000000000000        0x0 lib/lib.a(prio_tree.o)
 .note.GNU-stack
                0x0000000000000000        0x0 lib/lib.a(proportions.o)
 .note.GNU-stack
                0x0000000000000000        0x0 lib/lib.a(radix-tree.o)
 .note.GNU-stack
                0x0000000000000000        0x0 lib/lib.a(ratelimit.o)
 .note.GNU-stack
                0x0000000000000000        0x0 lib/lib.a(rbtree.o)
 .note.GNU-stack
                0x0000000000000000        0x0 lib/lib.a(reciprocal_div.o)
 .note.GNU-stack
                0x0000000000000000        0x0 lib/lib.a(rwsem-spinlock.o)
 .note.GNU-stack
                0x0000000000000000        0x0 lib/lib.a(string.o)
 .note.GNU-stack
                0x0000000000000000        0x0 lib/lib.a(vsprintf.o)
 .note.GNU-stack
                0x0000000000000000        0x0 lib/built-in.o
 .note.GNU-stack
                0x0000000000000000        0x0 drivers/built-in.o
 .note.GNU-stack
                0x0000000000000000        0x0 net/built-in.o
 .note.GNU-stack
                0x0000000000000000        0x0 lib/lib.a(klist.o)

.comment        0x0000000000000000       0x2e
 *(.comment)
 .comment       0x0000000000000000       0x2e arch/arm/kernel/init_task.o
                                         0x2f (size before relaxing)
 .comment       0x0000000000000000      0x149 init/built-in.o
 .comment       0x0000000000000000      0x292 arch/arm/kernel/built-in.o
 .comment       0x0000000000000000      0x2c1 arch/arm/mm/built-in.o
 .comment       0x0000000000000000       0xeb arch/arm/mach-goldfish/built-in.o
 .comment       0x0000000000000000       0x8d arch/arm/vfp/built-in.o
 .comment       0x0000000000000000      0xf0e kernel/built-in.o
 .comment       0x0000000000000000      0x787 mm/built-in.o
 .comment       0x0000000000000000     0x1bb9 fs/built-in.o
 .comment       0x0000000000000000      0x149 ipc/built-in.o
 .comment       0x0000000000000000       0x2f security/built-in.o
 .comment       0x0000000000000000      0x5e0 crypto/built-in.o
 .comment       0x0000000000000000      0x3ac block/built-in.o
 .comment       0x0000000000000000       0x2f lib/lib.a(argv_split.o)
 .comment       0x0000000000000000       0x2f lib/lib.a(cmdline.o)
 .comment       0x0000000000000000       0x2f lib/lib.a(ctype.o)
 .comment       0x0000000000000000       0x2f lib/lib.a(dec_and_lock.o)
 .comment       0x0000000000000000       0x2f lib/lib.a(extable.o)
 .comment       0x0000000000000000       0x2f lib/lib.a(idr.o)
 .comment       0x0000000000000000       0x2f lib/lib.a(int_sqrt.o)
 .comment       0x0000000000000000       0x2f lib/lib.a(irq_regs.o)
 .comment       0x0000000000000000       0x2f lib/lib.a(kobject.o)
 .comment       0x0000000000000000       0x2f lib/lib.a(kobject_uevent.o)
 .comment       0x0000000000000000       0x2f lib/lib.a(kref.o)
 .comment       0x0000000000000000       0x2f lib/lib.a(prio_heap.o)
 .comment       0x0000000000000000       0x2f lib/lib.a(prio_tree.o)
 .comment       0x0000000000000000       0x2f lib/lib.a(proportions.o)
 .comment       0x0000000000000000       0x2f lib/lib.a(radix-tree.o)
 .comment       0x0000000000000000       0x2f lib/lib.a(ratelimit.o)
 .comment       0x0000000000000000       0x2f lib/lib.a(rbtree.o)
 .comment       0x0000000000000000       0x2f lib/lib.a(reciprocal_div.o)
 .comment       0x0000000000000000       0x2f lib/lib.a(rwsem-spinlock.o)
 .comment       0x0000000000000000       0x2f lib/lib.a(string.o)
 .comment       0x0000000000000000       0x2f lib/lib.a(vsprintf.o)
 .comment       0x0000000000000000      0x468 lib/built-in.o
 .comment       0x0000000000000000     0x17de drivers/built-in.o
 .comment       0x0000000000000000     0x3482 net/built-in.o
 .comment       0x0000000000000000       0x2f lib/lib.a(klist.o)
                0x0000000000000034                ASSERT ((__proc_info_end - __proc_info_begin), missing CPU support)
                0x0000000000000034                ASSERT ((__arch_info_end - __arch_info_begin), no machine record defined)
LOAD arch/arm/kernel/head.o
LOAD arch/arm/kernel/init_task.o
LOAD init/built-in.o
START GROUP
LOAD usr/built-in.o
LOAD arch/arm/kernel/built-in.o
LOAD arch/arm/mm/built-in.o
LOAD arch/arm/common/built-in.o
LOAD arch/arm/mach-goldfish/built-in.o
LOAD arch/arm/vfp/built-in.o
LOAD kernel/built-in.o
LOAD mm/built-in.o
LOAD fs/built-in.o
LOAD ipc/built-in.o
LOAD security/built-in.o
LOAD crypto/built-in.o
LOAD block/built-in.o
LOAD arch/arm/lib/lib.a
LOAD lib/lib.a
LOAD arch/arm/lib/built-in.o
LOAD lib/built-in.o
LOAD drivers/built-in.o
LOAD sound/built-in.o
LOAD firmware/built-in.o
LOAD net/built-in.o
END GROUP
LOAD .tmp_kallsyms2.o
OUTPUT(vmlinux elf32-littlearm)
